---
triple:          'x86_64-apple-darwin'
binary-path:     tests
relocations:
  - { offsetInCU: 0x26, offset: 0x26, size: 0x8, addend: 0x0, symName: __ZN7GBitmap11setIsOpaqueENS_8IsOpaqueE, symObjAddr: 0x0, symBinAddr: 0x100001D40, symSize: 0x80 }
  - { offsetInCU: 0x2F23, offset: 0x2F23, size: 0x8, addend: 0x0, symName: __ZN7GBitmap11setIsOpaqueENS_8IsOpaqueE, symObjAddr: 0x0, symBinAddr: 0x100001D40, symSize: 0x80 }
  - { offsetInCU: 0x2F57, offset: 0x2F57, size: 0x8, addend: 0x0, symName: __ZN7GBitmap15computeIsOpaqueEv, symObjAddr: 0x80, symBinAddr: 0x100001DC0, symSize: 0x30 }
  - { offsetInCU: 0x2F7B, offset: 0x2F7B, size: 0x8, addend: 0x0, symName: __ZN7GBitmap5resetEiimPjNS_8IsOpaqueE, symObjAddr: 0xB0, symBinAddr: 0x100001DF0, symSize: 0x60 }
  - { offsetInCU: 0x2FE7, offset: 0x2FE7, size: 0x8, addend: 0x0, symName: __ZNK7GBitmap8validateEv, symObjAddr: 0x110, symBinAddr: 0x100001E50, symSize: 0x130 }
  - { offsetInCU: 0x300B, offset: 0x300B, size: 0x8, addend: 0x0, symName: __ZN7GBitmap15ComputeIsOpaqueERKS_, symObjAddr: 0x240, symBinAddr: 0x100001F80, symSize: 0xC0 }
  - { offsetInCU: 0x3083, offset: 0x3083, size: 0x8, addend: 0x0, symName: __ZNK7GBitmap6heightEv, symObjAddr: 0x300, symBinAddr: 0x100002040, symSize: 0x20 }
  - { offsetInCU: 0x30A7, offset: 0x30A7, size: 0x8, addend: 0x0, symName: __ZNK7GBitmap7getAddrEii, symObjAddr: 0x320, symBinAddr: 0x100002060, symSize: 0x130 }
  - { offsetInCU: 0x30E7, offset: 0x30E7, size: 0x8, addend: 0x0, symName: __ZNK7GBitmap5widthEv, symObjAddr: 0x450, symBinAddr: 0x100002190, symSize: 0x10 }
  - { offsetInCU: 0x310B, offset: 0x310B, size: 0x8, addend: 0x0, symName: __ZL11GPixel_GetAj, symObjAddr: 0x460, symBinAddr: 0x1000021A0, symSize: 0x20 }
  - { offsetInCU: 0x3137, offset: 0x3137, size: 0x8, addend: 0x0, symName: __ZN7GBitmap5allocEiim, symObjAddr: 0x480, symBinAddr: 0x1000021C0, symSize: 0x130 }
  - { offsetInCU: 0x3187, offset: 0x3187, size: 0x8, addend: 0x0, symName: __ZNK7GBitmap6pixelsEv, symObjAddr: 0x5B0, symBinAddr: 0x1000022F0, symSize: 0x20 }
  - { offsetInCU: 0x31AB, offset: 0x31AB, size: 0x8, addend: 0x0, symName: __ZNK7GBitmap8rowBytesEv, symObjAddr: 0x5D0, symBinAddr: 0x100002310, symSize: 0x12 }
  - { offsetInCU: 0x26, offset: 0x3209, size: 0x8, addend: 0x0, symName: __ZNK7GBitmap11writeToFileEPKc, symObjAddr: 0x0, symBinAddr: 0x100002330, symSize: 0x140 }
  - { offsetInCU: 0x2910, offset: 0x5AF3, size: 0x8, addend: 0x0, symName: __ZNK7GBitmap11writeToFileEPKc, symObjAddr: 0x0, symBinAddr: 0x100002330, symSize: 0x140 }
  - { offsetInCU: 0x29A6, offset: 0x5B89, size: 0x8, addend: 0x0, symName: __ZL12convertToPNGPKjiPh, symObjAddr: 0x190, symBinAddr: 0x100002470, symSize: 0x160 }
  - { offsetInCU: 0x2A5A, offset: 0x5C3D, size: 0x8, addend: 0x0, symName: __ZN7GBitmap12readFromFileEPKc, symObjAddr: 0x310, symBinAddr: 0x1000025D0, symSize: 0x110 }
  - { offsetInCU: 0x2AFF, offset: 0x5CE2, size: 0x8, addend: 0x0, symName: __ZL16swizzle_rgba_rowPjPKhi, symObjAddr: 0x420, symBinAddr: 0x1000026E0, symSize: 0xB0 }
  - { offsetInCU: 0x2B7B, offset: 0x5D5E, size: 0x8, addend: 0x0, symName: __ZL11GPixel_GetAj, symObjAddr: 0x4D0, symBinAddr: 0x100002790, symSize: 0x20 }
  - { offsetInCU: 0x2BA7, offset: 0x5D8A, size: 0x8, addend: 0x0, symName: __ZL11GPixel_GetRj, symObjAddr: 0x4F0, symBinAddr: 0x1000027B0, symSize: 0x20 }
  - { offsetInCU: 0x2BD3, offset: 0x5DB6, size: 0x8, addend: 0x0, symName: __ZL11GPixel_GetGj, symObjAddr: 0x510, symBinAddr: 0x1000027D0, symSize: 0x20 }
  - { offsetInCU: 0x2BFF, offset: 0x5DE2, size: 0x8, addend: 0x0, symName: __ZL11GPixel_GetBj, symObjAddr: 0x530, symBinAddr: 0x1000027F0, symSize: 0x20 }
  - { offsetInCU: 0x2C2B, offset: 0x5E0E, size: 0x8, addend: 0x0, symName: __ZL15GPixel_PackARGBjjjj, symObjAddr: 0x550, symBinAddr: 0x100002810, symSize: 0x130 }
  - { offsetInCU: 0x2C81, offset: 0x5E64, size: 0x8, addend: 0x0, symName: __ZL9alpha_muljj, symObjAddr: 0x680, symBinAddr: 0x100002940, symSize: 0x1F }
  - { offsetInCU: 0x5C, offset: 0x5F18, size: 0x8, addend: 0x0, symName: __ZNSt3__18in_placeE, symObjAddr: 0x4313, symBinAddr: 0x10003B0A0, symSize: 0x0 }
  - { offsetInCU: 0x2DAB, offset: 0x8C67, size: 0x8, addend: 0x0, symName: __ZNSt3__17advanceB7v160006IP6GPointmmvEEvRT_T0_, symObjAddr: 0x19A0, symBinAddr: 0x100004300, symSize: 0x50 }
  - { offsetInCU: 0x3243, offset: 0x90FF, size: 0x8, addend: 0x0, symName: __ZNSt3__17advanceB7v160006IPN5GPath4VerbEmmvEEvRT_T0_, symObjAddr: 0x3000, symBinAddr: 0x100005960, symSize: 0x50 }
  - { offsetInCU: 0x480B, offset: 0xA6C7, size: 0x8, addend: 0x0, symName: __ZNSt3__119__debug_db_insert_cB7v160006INS_6vectorI6GPointNS_9allocatorIS2_EEEEEEvPT_, symObjAddr: 0xC20, symBinAddr: 0x100003580, symSize: 0x10 }
  - { offsetInCU: 0x483C, offset: 0xA6F8, size: 0x8, addend: 0x0, symName: __ZNSt3__119__debug_db_insert_cB7v160006INS_6vectorIN5GPath4VerbENS_9allocatorIS3_EEEEEEvPT_, symObjAddr: 0xD70, symBinAddr: 0x1000036D0, symSize: 0x10 }
  - { offsetInCU: 0x486D, offset: 0xA729, size: 0x8, addend: 0x0, symName: __ZNSt3__118__debug_db_erase_cB7v160006INS_6vectorI6GPointNS_9allocatorIS2_EEEEEEvPT_, symObjAddr: 0x1000, symBinAddr: 0x100003960, symSize: 0x10 }
  - { offsetInCU: 0x489E, offset: 0xA75A, size: 0x8, addend: 0x0, symName: __ZNSt3__112__to_addressB7v160006I6GPointEEPT_S3_, symObjAddr: 0x11A0, symBinAddr: 0x100003B00, symSize: 0x10 }
  - { offsetInCU: 0x48D3, offset: 0xA78F, size: 0x8, addend: 0x0, symName: __ZNSt3__119__libcpp_deallocateB7v160006EPvmm, symObjAddr: 0x1200, symBinAddr: 0x100003B60, symSize: 0x60 }
  - { offsetInCU: 0x4938, offset: 0xA7F4, size: 0x8, addend: 0x0, symName: __ZNSt3__124__is_overaligned_for_newB7v160006Em, symObjAddr: 0x1260, symBinAddr: 0x100003BC0, symSize: 0x20 }
  - { offsetInCU: 0x4966, offset: 0xA822, size: 0x8, addend: 0x0, symName: __ZNSt3__127__do_deallocate_handle_sizeB7v160006IJSt11align_val_tEEEvPvmDpT_, symObjAddr: 0x1280, symBinAddr: 0x100003BE0, symSize: 0x30 }
  - { offsetInCU: 0x49B9, offset: 0xA875, size: 0x8, addend: 0x0, symName: __ZNSt3__127__do_deallocate_handle_sizeB7v160006IJEEEvPvmDpT_, symObjAddr: 0x12B0, symBinAddr: 0x100003C10, symSize: 0x20 }
  - { offsetInCU: 0x49F7, offset: 0xA8B3, size: 0x8, addend: 0x0, symName: __ZNSt3__124__libcpp_operator_deleteB7v160006IJPvSt11align_val_tEEEvDpT_, symObjAddr: 0x12D0, symBinAddr: 0x100003C30, symSize: 0x30 }
  - { offsetInCU: 0x4A40, offset: 0xA8FC, size: 0x8, addend: 0x0, symName: __ZNSt3__124__libcpp_operator_deleteB7v160006IJPvEEEvDpT_, symObjAddr: 0x1300, symBinAddr: 0x100003C60, symSize: 0x20 }
  - { offsetInCU: 0x4A75, offset: 0xA931, size: 0x8, addend: 0x0, symName: __ZNSt3__118__debug_db_erase_cB7v160006INS_6vectorIN5GPath4VerbENS_9allocatorIS3_EEEEEEvPT_, symObjAddr: 0x1570, symBinAddr: 0x100003ED0, symSize: 0x10 }
  - { offsetInCU: 0x4AA6, offset: 0xA962, size: 0x8, addend: 0x0, symName: __ZNSt3__112__to_addressB7v160006IN5GPath4VerbEEEPT_S4_, symObjAddr: 0x16F0, symBinAddr: 0x100004050, symSize: 0x10 }
  - { offsetInCU: 0x4ADB, offset: 0xA997, size: 0x8, addend: 0x0, symName: __ZNSt3__18distanceB7v160006IP6GPointEENS_15iterator_traitsIT_E15difference_typeES4_S4_, symObjAddr: 0x1970, symBinAddr: 0x1000042D0, symSize: 0x30 }
  - { offsetInCU: 0x4B1E, offset: 0xA9DA, size: 0x8, addend: 0x0, symName: __ZNSt3__14copyB7v160006IP6GPointS2_EET0_T_S4_S3_, symObjAddr: 0x19F0, symBinAddr: 0x100004350, symSize: 0x40 }
  - { offsetInCU: 0x4B78, offset: 0xAA34, size: 0x8, addend: 0x0, symName: __ZNSt3__125__debug_db_invalidate_allB7v160006INS_6vectorI6GPointNS_9allocatorIS2_EEEEEEvPT_, symObjAddr: 0x1CE0, symBinAddr: 0x100004640, symSize: 0x10 }
  - { offsetInCU: 0x4BA9, offset: 0xAA65, size: 0x8, addend: 0x0, symName: __ZNSt3__110__distanceB7v160006IP6GPointEENS_15iterator_traitsIT_E15difference_typeES4_S4_NS_26random_access_iterator_tagE, symObjAddr: 0x1CF0, symBinAddr: 0x100004650, symSize: 0x20 }
  - { offsetInCU: 0x4BF6, offset: 0xAAB2, size: 0x8, addend: 0x0, symName: __ZNSt3__121__convert_to_integralB7v160006Em, symObjAddr: 0x1D10, symBinAddr: 0x100004670, symSize: 0x10 }
  - { offsetInCU: 0x4C22, offset: 0xAADE, size: 0x8, addend: 0x0, symName: __ZNSt3__19__advanceB7v160006IP6GPointEEvRT_NS_15iterator_traitsIS3_E15difference_typeENS_26random_access_iterator_tagE, symObjAddr: 0x1D20, symBinAddr: 0x100004680, symSize: 0x20 }
  - { offsetInCU: 0x4C6B, offset: 0xAB27, size: 0x8, addend: 0x0, symName: __ZNSt3__16__copyB7v160006INS_17_ClassicAlgPolicyEP6GPointS3_S3_EENS_4pairIT0_T2_EES5_T1_S6_, symObjAddr: 0x1D40, symBinAddr: 0x1000046A0, symSize: 0x40 }
  - { offsetInCU: 0x4CD7, offset: 0xAB93, size: 0x8, addend: 0x0, symName: __ZNSt3__123__dispatch_copy_or_moveB7v160006INS_17_ClassicAlgPolicyENS_11__copy_loopIS1_EENS_14__copy_trivialEP6GPointS6_S6_EENS_4pairIT2_T4_EES8_T3_S9_, symObjAddr: 0x1D80, symBinAddr: 0x1000046E0, symSize: 0x40 }
  - { offsetInCU: 0x4D55, offset: 0xAC11, size: 0x8, addend: 0x0, symName: __ZNSt3__121__unwrap_and_dispatchB7v160006INS_10__overloadINS_11__copy_loopINS_17_ClassicAlgPolicyEEENS_14__copy_trivialEEEP6GPointS8_S8_Li0EEENS_4pairIT0_T2_EESA_T1_SB_, symObjAddr: 0x1DC0, symBinAddr: 0x100004720, symSize: 0xB0 }
  - { offsetInCU: 0x4DE4, offset: 0xACA0, size: 0x8, addend: 0x0, symName: __ZNSt3__114__unwrap_rangeB7v160006IP6GPointS2_EENS_4pairIT0_S4_EET_S6_, symObjAddr: 0x1E70, symBinAddr: 0x1000047D0, symSize: 0x50 }
  - { offsetInCU: 0x4FB5, offset: 0xAE71, size: 0x8, addend: 0x0, symName: __ZNSt3__113__unwrap_iterB7v160006IP6GPointNS_18__unwrap_iter_implIS2_Lb1EEELi0EEEDTclsrT0_8__unwrapclsr3stdE7declvalIT_EEEES6_, symObjAddr: 0x1F00, symBinAddr: 0x100004860, symSize: 0x20 }
  - { offsetInCU: 0x4FF9, offset: 0xAEB5, size: 0x8, addend: 0x0, symName: __ZNSt3__19make_pairB7v160006IP6GPointS2_EENS_4pairINS_18__unwrap_ref_decayIT_E4typeENS4_IT0_E4typeEEEOS5_OS8_, symObjAddr: 0x1F20, symBinAddr: 0x100004880, symSize: 0x30 }
  - { offsetInCU: 0x5048, offset: 0xAF04, size: 0x8, addend: 0x0, symName: __ZNSt3__114__rewrap_rangeB7v160006IP6GPointS2_EET_S3_T0_, symObjAddr: 0x1F50, symBinAddr: 0x1000048B0, symSize: 0x30 }
  - { offsetInCU: 0x5094, offset: 0xAF50, size: 0x8, addend: 0x0, symName: __ZNSt3__113__rewrap_iterB7v160006IP6GPointS2_NS_18__unwrap_iter_implIS2_Lb1EEEEET_S5_T0_, symObjAddr: 0x1F80, symBinAddr: 0x1000048E0, symSize: 0x40 }
  - { offsetInCU: 0x50E9, offset: 0xAFA5, size: 0x8, addend: 0x0, symName: __ZNSt3__119__copy_trivial_implB7v160006I6GPointS1_EENS_4pairIPT_PT0_EES4_S4_S6_, symObjAddr: 0x1FC0, symBinAddr: 0x100004920, symSize: 0x70 }
  - { offsetInCU: 0x5151, offset: 0xB00D, size: 0x8, addend: 0x0, symName: __ZNSt3__19make_pairB7v160006IRP6GPointS2_EENS_4pairINS_18__unwrap_ref_decayIT_E4typeENS5_IT0_E4typeEEEOS6_OS9_, symObjAddr: 0x2030, symBinAddr: 0x100004990, symSize: 0x30 }
  - { offsetInCU: 0x51F3, offset: 0xB0AF, size: 0x8, addend: 0x0, symName: __ZNSt3__130__uninitialized_allocator_copyB7v160006INS_9allocatorI6GPointEEPS2_S4_S4_EET2_RT_T0_T1_S5_, symObjAddr: 0x21C0, symBinAddr: 0x100004B20, symSize: 0x100 }
  - { offsetInCU: 0x5291, offset: 0xB14D, size: 0x8, addend: 0x0, symName: __ZNSt3__122__make_exception_guardB7v160006INS_29_AllocatorDestroyRangeReverseINS_9allocatorI6GPointEEPS3_EEEENS_28__exception_guard_exceptionsIT_EES8_, symObjAddr: 0x2320, symBinAddr: 0x100004C80, symSize: 0x60 }
  - { offsetInCU: 0x52C6, offset: 0xB182, size: 0x8, addend: 0x0, symName: __ZNSt3__119__allocator_destroyB7v160006INS_9allocatorI6GPointEENS_16reverse_iteratorIPS2_EES6_EEvRT_T0_T1_, symObjAddr: 0x25A0, symBinAddr: 0x100004F00, symSize: 0x70 }
  - { offsetInCU: 0x5329, offset: 0xB1E5, size: 0x8, addend: 0x0, symName: __ZNSt3__1neB7v160006IP6GPointS2_EEbRKNS_16reverse_iteratorIT_EERKNS3_IT0_EE, symObjAddr: 0x2640, symBinAddr: 0x100004FA0, symSize: 0x40 }
  - { offsetInCU: 0x5375, offset: 0xB231, size: 0x8, addend: 0x0, symName: __ZNSt3__112__to_addressB7v160006INS_16reverse_iteratorIP6GPointEEvEENS_5decayIDTclsr19__to_address_helperIT_EE6__callclsr3stdE7declvalIRKS6_EEEEE4typeES8_, symObjAddr: 0x2680, symBinAddr: 0x100004FE0, symSize: 0x20 }
  - { offsetInCU: 0x53D4, offset: 0xB290, size: 0x8, addend: 0x0, symName: __ZNSt3__119__allocate_at_leastB7v160006INS_9allocatorI6GPointEEEENS_19__allocation_resultINS_16allocator_traitsIT_E7pointerEEERS6_m, symObjAddr: 0x2940, symBinAddr: 0x1000052A0, symSize: 0x40 }
  - { offsetInCU: 0x5417, offset: 0xB2D3, size: 0x8, addend: 0x0, symName: __ZNSt3__13minB7v160006ImEERKT_S3_S3_, symObjAddr: 0x2A30, symBinAddr: 0x100005390, symSize: 0x30 }
  - { offsetInCU: 0x5644, offset: 0xB500, size: 0x8, addend: 0x0, symName: __ZNSt3__13minB7v160006ImNS_6__lessImmEEEERKT_S5_S5_T0_, symObjAddr: 0x2AB0, symBinAddr: 0x100005410, symSize: 0x50 }
  - { offsetInCU: 0x56D9, offset: 0xB595, size: 0x8, addend: 0x0, symName: __ZNSt3__120__throw_length_errorB7v160006EPKc, symObjAddr: 0x2B90, symBinAddr: 0x1000054F0, symSize: 0x70 }
  - { offsetInCU: 0x5701, offset: 0xB5BD, size: 0x8, addend: 0x0, symName: __ZNSt3__117__libcpp_allocateB7v160006Emm, symObjAddr: 0x2D00, symBinAddr: 0x100005660, symSize: 0x60 }
  - { offsetInCU: 0x575B, offset: 0xB617, size: 0x8, addend: 0x0, symName: __ZNSt3__121__libcpp_operator_newB7v160006IJmSt11align_val_tEEEPvDpT_, symObjAddr: 0x2D60, symBinAddr: 0x1000056C0, symSize: 0x30 }
  - { offsetInCU: 0x57A8, offset: 0xB664, size: 0x8, addend: 0x0, symName: __ZNSt3__121__libcpp_operator_newB7v160006IJmEEEPvDpT_, symObjAddr: 0x2D90, symBinAddr: 0x1000056F0, symSize: 0x20 }
  - { offsetInCU: 0x57E1, offset: 0xB69D, size: 0x8, addend: 0x0, symName: __ZNSt3__13maxB7v160006ImEERKT_S3_S3_, symObjAddr: 0x2DB0, symBinAddr: 0x100005710, symSize: 0x30 }
  - { offsetInCU: 0x5824, offset: 0xB6E0, size: 0x8, addend: 0x0, symName: __ZNSt3__13maxB7v160006ImNS_6__lessImmEEEERKT_S5_S5_T0_, symObjAddr: 0x2DE0, symBinAddr: 0x100005740, symSize: 0x50 }
  - { offsetInCU: 0x587E, offset: 0xB73A, size: 0x8, addend: 0x0, symName: __ZNSt3__18distanceB7v160006IPN5GPath4VerbEEENS_15iterator_traitsIT_E15difference_typeES5_S5_, symObjAddr: 0x2FD0, symBinAddr: 0x100005930, symSize: 0x30 }
  - { offsetInCU: 0x58C1, offset: 0xB77D, size: 0x8, addend: 0x0, symName: __ZNSt3__14copyB7v160006IPN5GPath4VerbES3_EET0_T_S5_S4_, symObjAddr: 0x3050, symBinAddr: 0x1000059B0, symSize: 0x40 }
  - { offsetInCU: 0x591B, offset: 0xB7D7, size: 0x8, addend: 0x0, symName: __ZNSt3__125__debug_db_invalidate_allB7v160006INS_6vectorIN5GPath4VerbENS_9allocatorIS3_EEEEEEvPT_, symObjAddr: 0x3340, symBinAddr: 0x100005CA0, symSize: 0x10 }
  - { offsetInCU: 0x594C, offset: 0xB808, size: 0x8, addend: 0x0, symName: __ZNSt3__110__distanceB7v160006IPN5GPath4VerbEEENS_15iterator_traitsIT_E15difference_typeES5_S5_NS_26random_access_iterator_tagE, symObjAddr: 0x3350, symBinAddr: 0x100005CB0, symSize: 0x20 }
  - { offsetInCU: 0x5999, offset: 0xB855, size: 0x8, addend: 0x0, symName: __ZNSt3__19__advanceB7v160006IPN5GPath4VerbEEEvRT_NS_15iterator_traitsIS4_E15difference_typeENS_26random_access_iterator_tagE, symObjAddr: 0x3370, symBinAddr: 0x100005CD0, symSize: 0x20 }
  - { offsetInCU: 0x59E2, offset: 0xB89E, size: 0x8, addend: 0x0, symName: __ZNSt3__16__copyB7v160006INS_17_ClassicAlgPolicyEPN5GPath4VerbES4_S4_EENS_4pairIT0_T2_EES6_T1_S7_, symObjAddr: 0x3390, symBinAddr: 0x100005CF0, symSize: 0x40 }
  - { offsetInCU: 0x5A4E, offset: 0xB90A, size: 0x8, addend: 0x0, symName: __ZNSt3__123__dispatch_copy_or_moveB7v160006INS_17_ClassicAlgPolicyENS_11__copy_loopIS1_EENS_14__copy_trivialEPN5GPath4VerbES7_S7_EENS_4pairIT2_T4_EES9_T3_SA_, symObjAddr: 0x33D0, symBinAddr: 0x100005D30, symSize: 0x40 }
  - { offsetInCU: 0x5ACC, offset: 0xB988, size: 0x8, addend: 0x0, symName: __ZNSt3__121__unwrap_and_dispatchB7v160006INS_10__overloadINS_11__copy_loopINS_17_ClassicAlgPolicyEEENS_14__copy_trivialEEEPN5GPath4VerbES9_S9_Li0EEENS_4pairIT0_T2_EESB_T1_SC_, symObjAddr: 0x3410, symBinAddr: 0x100005D70, symSize: 0xB0 }
  - { offsetInCU: 0x5B5B, offset: 0xBA17, size: 0x8, addend: 0x0, symName: __ZNSt3__114__unwrap_rangeB7v160006IPN5GPath4VerbES3_EENS_4pairIT0_S5_EET_S7_, symObjAddr: 0x34C0, symBinAddr: 0x100005E20, symSize: 0x50 }
  - { offsetInCU: 0x5CAA, offset: 0xBB66, size: 0x8, addend: 0x0, symName: __ZNSt3__113__unwrap_iterB7v160006IPN5GPath4VerbENS_18__unwrap_iter_implIS3_Lb1EEELi0EEEDTclsrT0_8__unwrapclsr3stdE7declvalIT_EEEES7_, symObjAddr: 0x3550, symBinAddr: 0x100005EB0, symSize: 0x20 }
  - { offsetInCU: 0x5CEE, offset: 0xBBAA, size: 0x8, addend: 0x0, symName: __ZNSt3__19make_pairB7v160006IPN5GPath4VerbES3_EENS_4pairINS_18__unwrap_ref_decayIT_E4typeENS5_IT0_E4typeEEEOS6_OS9_, symObjAddr: 0x3570, symBinAddr: 0x100005ED0, symSize: 0x30 }
  - { offsetInCU: 0x5D3D, offset: 0xBBF9, size: 0x8, addend: 0x0, symName: __ZNSt3__114__rewrap_rangeB7v160006IPN5GPath4VerbES3_EET_S4_T0_, symObjAddr: 0x35A0, symBinAddr: 0x100005F00, symSize: 0x30 }
  - { offsetInCU: 0x5D89, offset: 0xBC45, size: 0x8, addend: 0x0, symName: __ZNSt3__113__rewrap_iterB7v160006IPN5GPath4VerbES3_NS_18__unwrap_iter_implIS3_Lb1EEEEET_S6_T0_, symObjAddr: 0x35D0, symBinAddr: 0x100005F30, symSize: 0x40 }
  - { offsetInCU: 0x5DDE, offset: 0xBC9A, size: 0x8, addend: 0x0, symName: __ZNSt3__119__copy_trivial_implB7v160006IN5GPath4VerbES2_EENS_4pairIPT_PT0_EES5_S5_S7_, symObjAddr: 0x3610, symBinAddr: 0x100005F70, symSize: 0x70 }
  - { offsetInCU: 0x5E46, offset: 0xBD02, size: 0x8, addend: 0x0, symName: __ZNSt3__19make_pairB7v160006IRPN5GPath4VerbES3_EENS_4pairINS_18__unwrap_ref_decayIT_E4typeENS6_IT0_E4typeEEEOS7_OSA_, symObjAddr: 0x3680, symBinAddr: 0x100005FE0, symSize: 0x30 }
  - { offsetInCU: 0x5EE8, offset: 0xBDA4, size: 0x8, addend: 0x0, symName: __ZNSt3__130__uninitialized_allocator_copyB7v160006INS_9allocatorIN5GPath4VerbEEEPS3_S5_S5_EET2_RT_T0_T1_S6_, symObjAddr: 0x3810, symBinAddr: 0x100006170, symSize: 0x100 }
  - { offsetInCU: 0x5F86, offset: 0xBE42, size: 0x8, addend: 0x0, symName: __ZNSt3__122__make_exception_guardB7v160006INS_29_AllocatorDestroyRangeReverseINS_9allocatorIN5GPath4VerbEEEPS4_EEEENS_28__exception_guard_exceptionsIT_EES9_, symObjAddr: 0x3970, symBinAddr: 0x1000062D0, symSize: 0x60 }
  - { offsetInCU: 0x5FBB, offset: 0xBE77, size: 0x8, addend: 0x0, symName: __ZNSt3__119__allocator_destroyB7v160006INS_9allocatorIN5GPath4VerbEEENS_16reverse_iteratorIPS3_EES7_EEvRT_T0_T1_, symObjAddr: 0x3BF0, symBinAddr: 0x100006550, symSize: 0x70 }
  - { offsetInCU: 0x601E, offset: 0xBEDA, size: 0x8, addend: 0x0, symName: __ZNSt3__1neB7v160006IPN5GPath4VerbES3_EEbRKNS_16reverse_iteratorIT_EERKNS4_IT0_EE, symObjAddr: 0x3C90, symBinAddr: 0x1000065F0, symSize: 0x40 }
  - { offsetInCU: 0x606A, offset: 0xBF26, size: 0x8, addend: 0x0, symName: __ZNSt3__112__to_addressB7v160006INS_16reverse_iteratorIPN5GPath4VerbEEEvEENS_5decayIDTclsr19__to_address_helperIT_EE6__callclsr3stdE7declvalIRKS7_EEEEE4typeES9_, symObjAddr: 0x3CD0, symBinAddr: 0x100006630, symSize: 0x20 }
  - { offsetInCU: 0x60C9, offset: 0xBF85, size: 0x8, addend: 0x0, symName: __ZNSt3__119__allocate_at_leastB7v160006INS_9allocatorIN5GPath4VerbEEEEENS_19__allocation_resultINS_16allocator_traitsIT_E7pointerEEERS7_m, symObjAddr: 0x3F90, symBinAddr: 0x1000068F0, symSize: 0x40 }
  - { offsetInCU: 0x6451, offset: 0xC30D, size: 0x8, addend: 0x0, symName: __ZSt28__throw_bad_array_new_lengthB7v160006v, symObjAddr: 0x2CC0, symBinAddr: 0x100005620, symSize: 0x40 }
  - { offsetInCU: 0x8EC0, offset: 0xED7C, size: 0x8, addend: 0x0, symName: __ZN5GPathC2Ev, symObjAddr: 0x0, symBinAddr: 0x100002960, symSize: 0x30 }
  - { offsetInCU: 0x8EEA, offset: 0xEDA6, size: 0x8, addend: 0x0, symName: __ZNSt3__16vectorI6GPointNS_9allocatorIS1_EEEC1B7v160006Ev, symObjAddr: 0x30, symBinAddr: 0x100002990, symSize: 0x20 }
  - { offsetInCU: 0x8F13, offset: 0xEDCF, size: 0x8, addend: 0x0, symName: __ZNSt3__16vectorIN5GPath4VerbENS_9allocatorIS2_EEEC1B7v160006Ev, symObjAddr: 0x50, symBinAddr: 0x1000029B0, symSize: 0x20 }
  - { offsetInCU: 0x8F3C, offset: 0xEDF8, size: 0x8, addend: 0x0, symName: __ZN5GPathC1Ev, symObjAddr: 0x70, symBinAddr: 0x1000029D0, symSize: 0x20 }
  - { offsetInCU: 0x8F66, offset: 0xEE22, size: 0x8, addend: 0x0, symName: __ZN5GPathD2Ev, symObjAddr: 0x90, symBinAddr: 0x1000029F0, symSize: 0x30 }
  - { offsetInCU: 0x8F90, offset: 0xEE4C, size: 0x8, addend: 0x0, symName: __ZNSt3__16vectorIN5GPath4VerbENS_9allocatorIS2_EEED1B7v160006Ev, symObjAddr: 0xC0, symBinAddr: 0x100002A20, symSize: 0x20 }
  - { offsetInCU: 0x8FB9, offset: 0xEE75, size: 0x8, addend: 0x0, symName: __ZNSt3__16vectorI6GPointNS_9allocatorIS1_EEED1B7v160006Ev, symObjAddr: 0xE0, symBinAddr: 0x100002A40, symSize: 0x20 }
  - { offsetInCU: 0x8FE2, offset: 0xEE9E, size: 0x8, addend: 0x0, symName: __ZN5GPathD1Ev, symObjAddr: 0x100, symBinAddr: 0x100002A60, symSize: 0x20 }
  - { offsetInCU: 0x900C, offset: 0xEEC8, size: 0x8, addend: 0x0, symName: __ZN5GPathaSERKS_, symObjAddr: 0x120, symBinAddr: 0x100002A80, symSize: 0x50 }
  - { offsetInCU: 0x9040, offset: 0xEEFC, size: 0x8, addend: 0x0, symName: __ZNSt3__16vectorI6GPointNS_9allocatorIS1_EEEaSB7v160006ERKS4_, symObjAddr: 0x170, symBinAddr: 0x100002AD0, symSize: 0x60 }
  - { offsetInCU: 0x9076, offset: 0xEF32, size: 0x8, addend: 0x0, symName: __ZNSt3__16vectorIN5GPath4VerbENS_9allocatorIS2_EEEaSB7v160006ERKS5_, symObjAddr: 0x1D0, symBinAddr: 0x100002B30, symSize: 0x60 }
  - { offsetInCU: 0x90AC, offset: 0xEF68, size: 0x8, addend: 0x0, symName: __ZN5GPath5resetEv, symObjAddr: 0x230, symBinAddr: 0x100002B90, symSize: 0x30 }
  - { offsetInCU: 0x90D2, offset: 0xEF8E, size: 0x8, addend: 0x0, symName: __ZNSt3__16vectorI6GPointNS_9allocatorIS1_EEE5clearB7v160006Ev, symObjAddr: 0x260, symBinAddr: 0x100002BC0, symSize: 0x50 }
  - { offsetInCU: 0x9105, offset: 0xEFC1, size: 0x8, addend: 0x0, symName: __ZNSt3__16vectorIN5GPath4VerbENS_9allocatorIS2_EEE5clearB7v160006Ev, symObjAddr: 0x2B0, symBinAddr: 0x100002C10, symSize: 0x50 }
  - { offsetInCU: 0x9138, offset: 0xEFF4, size: 0x8, addend: 0x0, symName: __ZNK5GPath4dumpEv, symObjAddr: 0x300, symBinAddr: 0x100002C60, symSize: 0xF0 }
  - { offsetInCU: 0x91FD, offset: 0xF0B9, size: 0x8, addend: 0x0, symName: __ZN5GPath4IterC1ERKS_, symObjAddr: 0x3F0, symBinAddr: 0x100002D50, symSize: 0x30 }
  - { offsetInCU: 0x9235, offset: 0xF0F1, size: 0x8, addend: 0x0, symName: __ZN5GPath4Iter4nextEP6GPoint, symObjAddr: 0x420, symBinAddr: 0x100002D80, symSize: 0x120 }
  - { offsetInCU: 0x9277, offset: 0xF133, size: 0x8, addend: 0x0, symName: __ZNKSt3__18optionalIN5GPath4VerbEEcvbB7v160006Ev, symObjAddr: 0x540, symBinAddr: 0x100002EA0, symSize: 0x20 }
  - { offsetInCU: 0x929B, offset: 0xF157, size: 0x8, addend: 0x0, symName: __ZNRSt3__18optionalIN5GPath4VerbEEdeB7v160006Ev, symObjAddr: 0x560, symBinAddr: 0x100002EC0, symSize: 0x20 }
  - { offsetInCU: 0x92BF, offset: 0xF17B, size: 0x8, addend: 0x0, symName: __ZN5GPath4IterC2ERKS_, symObjAddr: 0x580, symBinAddr: 0x100002EE0, symSize: 0x80 }
  - { offsetInCU: 0x92F7, offset: 0xF1B3, size: 0x8, addend: 0x0, symName: __ZNKSt3__16vectorI6GPointNS_9allocatorIS1_EEE4dataB7v160006Ev, symObjAddr: 0x600, symBinAddr: 0x100002F60, symSize: 0x20 }
  - { offsetInCU: 0x931B, offset: 0xF1D7, size: 0x8, addend: 0x0, symName: __ZNKSt3__16vectorIN5GPath4VerbENS_9allocatorIS2_EEE4dataB7v160006Ev, symObjAddr: 0x620, symBinAddr: 0x100002F80, symSize: 0x20 }
  - { offsetInCU: 0x933F, offset: 0xF1FB, size: 0x8, addend: 0x0, symName: __ZNKSt3__16vectorIN5GPath4VerbENS_9allocatorIS2_EEE4sizeB7v160006Ev, symObjAddr: 0x640, symBinAddr: 0x100002FA0, symSize: 0x20 }
  - { offsetInCU: 0x9363, offset: 0xF21F, size: 0x8, addend: 0x0, symName: __ZNSt3__18optionalIN5GPath4VerbEEC1B7v160006Ev, symObjAddr: 0x660, symBinAddr: 0x100002FC0, symSize: 0x20 }
  - { offsetInCU: 0x9391, offset: 0xF24D, size: 0x8, addend: 0x0, symName: __ZNSt3__18optionalIN5GPath4VerbEEC1B7v160006IS2_Li0EEEOT_, symObjAddr: 0x680, symBinAddr: 0x100002FE0, symSize: 0x30 }
  - { offsetInCU: 0x93DD, offset: 0xF299, size: 0x8, addend: 0x0, symName: __ZN5GPath5EdgerC2ERKS_, symObjAddr: 0x6B0, symBinAddr: 0x100003010, symSize: 0x90 }
  - { offsetInCU: 0x9415, offset: 0xF2D1, size: 0x8, addend: 0x0, symName: __ZN5GPath5EdgerC1ERKS_, symObjAddr: 0x740, symBinAddr: 0x1000030A0, symSize: 0x30 }
  - { offsetInCU: 0x944D, offset: 0xF309, size: 0x8, addend: 0x0, symName: __ZN5GPath5Edger4nextEP6GPoint, symObjAddr: 0x770, symBinAddr: 0x1000030D0, symSize: 0x1C0 }
  - { offsetInCU: 0x948F, offset: 0xF34B, size: 0x8, addend: 0x0, symName: __ZNKSt3__123__optional_storage_baseIN5GPath4VerbELb0EE9has_valueB7v160006Ev, symObjAddr: 0x930, symBinAddr: 0x100003290, symSize: 0x20 }
  - { offsetInCU: 0x94B3, offset: 0xF36F, size: 0x8, addend: 0x0, symName: __ZNRSt3__123__optional_storage_baseIN5GPath4VerbELb0EE5__getB7v160006Ev, symObjAddr: 0x950, symBinAddr: 0x1000032B0, symSize: 0x10 }
  - { offsetInCU: 0x94D7, offset: 0xF393, size: 0x8, addend: 0x0, symName: __ZNSt3__18optionalIN5GPath4VerbEEC2B7v160006Ev, symObjAddr: 0x960, symBinAddr: 0x1000032C0, symSize: 0x20 }
  - { offsetInCU: 0x9506, offset: 0xF3C2, size: 0x8, addend: 0x0, symName: __ZNSt3__127__optional_move_assign_baseIN5GPath4VerbELb1EEC2Ev, symObjAddr: 0x980, symBinAddr: 0x1000032E0, symSize: 0x20 }
  - { offsetInCU: 0x9537, offset: 0xF3F3, size: 0x8, addend: 0x0, symName: __ZNSt3__127__optional_copy_assign_baseIN5GPath4VerbELb1EEC2Ev, symObjAddr: 0x9A0, symBinAddr: 0x100003300, symSize: 0x20 }
  - { offsetInCU: 0x9568, offset: 0xF424, size: 0x8, addend: 0x0, symName: __ZNSt3__120__optional_move_baseIN5GPath4VerbELb1EEC2Ev, symObjAddr: 0x9C0, symBinAddr: 0x100003320, symSize: 0x20 }
  - { offsetInCU: 0x9599, offset: 0xF455, size: 0x8, addend: 0x0, symName: __ZNSt3__120__optional_copy_baseIN5GPath4VerbELb1EEC2Ev, symObjAddr: 0x9E0, symBinAddr: 0x100003340, symSize: 0x20 }
  - { offsetInCU: 0x95C5, offset: 0xF481, size: 0x8, addend: 0x0, symName: __ZNSt3__123__optional_storage_baseIN5GPath4VerbELb0EEC2Ev, symObjAddr: 0xA00, symBinAddr: 0x100003360, symSize: 0x20 }
  - { offsetInCU: 0x95F0, offset: 0xF4AC, size: 0x8, addend: 0x0, symName: __ZNSt3__124__optional_destruct_baseIN5GPath4VerbELb1EEC2B7v160006Ev, symObjAddr: 0xA20, symBinAddr: 0x100003380, symSize: 0x20 }
  - { offsetInCU: 0x9619, offset: 0xF4D5, size: 0x8, addend: 0x0, symName: __ZNSt3__18optionalIN5GPath4VerbEEC2B7v160006IS2_Li0EEEOT_, symObjAddr: 0xA40, symBinAddr: 0x1000033A0, symSize: 0x30 }
  - { offsetInCU: 0x9661, offset: 0xF51D, size: 0x8, addend: 0x0, symName: __ZNSt3__127__optional_move_assign_baseIN5GPath4VerbELb1EECI2NS_24__optional_destruct_baseIS2_Lb1EEEIJS2_EEENS_10in_place_tEDpOT_, symObjAddr: 0xA70, symBinAddr: 0x1000033D0, symSize: 0x30 }
  - { offsetInCU: 0x969F, offset: 0xF55B, size: 0x8, addend: 0x0, symName: __ZNSt3__127__optional_copy_assign_baseIN5GPath4VerbELb1EECI2NS_24__optional_destruct_baseIS2_Lb1EEEIJS2_EEENS_10in_place_tEDpOT_, symObjAddr: 0xAA0, symBinAddr: 0x100003400, symSize: 0x30 }
  - { offsetInCU: 0x96DD, offset: 0xF599, size: 0x8, addend: 0x0, symName: __ZNSt3__120__optional_move_baseIN5GPath4VerbELb1EECI2NS_24__optional_destruct_baseIS2_Lb1EEEIJS2_EEENS_10in_place_tEDpOT_, symObjAddr: 0xAD0, symBinAddr: 0x100003430, symSize: 0x30 }
  - { offsetInCU: 0x971B, offset: 0xF5D7, size: 0x8, addend: 0x0, symName: __ZNSt3__120__optional_copy_baseIN5GPath4VerbELb1EECI2NS_24__optional_destruct_baseIS2_Lb1EEEIJS2_EEENS_10in_place_tEDpOT_, symObjAddr: 0xB00, symBinAddr: 0x100003460, symSize: 0x30 }
  - { offsetInCU: 0x9759, offset: 0xF615, size: 0x8, addend: 0x0, symName: __ZNSt3__123__optional_storage_baseIN5GPath4VerbELb0EECI2NS_24__optional_destruct_baseIS2_Lb1EEEIJS2_EEENS_10in_place_tEDpOT_, symObjAddr: 0xB30, symBinAddr: 0x100003490, symSize: 0x30 }
  - { offsetInCU: 0x9796, offset: 0xF652, size: 0x8, addend: 0x0, symName: __ZNSt3__124__optional_destruct_baseIN5GPath4VerbELb1EEC2B7v160006IJS2_EEENS_10in_place_tEDpOT_, symObjAddr: 0xB60, symBinAddr: 0x1000034C0, symSize: 0x20 }
  - { offsetInCU: 0x97E5, offset: 0xF6A1, size: 0x8, addend: 0x0, symName: __ZNSt3__16vectorI6GPointNS_9allocatorIS1_EEEC2B7v160006Ev, symObjAddr: 0xB80, symBinAddr: 0x1000034E0, symSize: 0x60 }
  - { offsetInCU: 0x9818, offset: 0xF6D4, size: 0x8, addend: 0x0, symName: __ZNSt3__117__compressed_pairIP6GPointNS_9allocatorIS1_EEEC1B7v160006IDnNS_18__default_init_tagEEEOT_OT0_, symObjAddr: 0xBE0, symBinAddr: 0x100003540, symSize: 0x30 }
  - { offsetInCU: 0x986F, offset: 0xF72B, size: 0x8, addend: 0x0, symName: __ZNSt3__117__compressed_pairIP6GPointNS_9allocatorIS1_EEEC2B7v160006IDnNS_18__default_init_tagEEEOT_OT0_, symObjAddr: 0xC30, symBinAddr: 0x100003590, symSize: 0x40 }
  - { offsetInCU: 0x98C6, offset: 0xF782, size: 0x8, addend: 0x0, symName: __ZNSt3__122__compressed_pair_elemIP6GPointLi0ELb0EEC2B7v160006IDnvEEOT_, symObjAddr: 0xC70, symBinAddr: 0x1000035D0, symSize: 0x20 }
  - { offsetInCU: 0x9907, offset: 0xF7C3, size: 0x8, addend: 0x0, symName: __ZNSt3__122__compressed_pair_elemINS_9allocatorI6GPointEELi1ELb1EEC2B7v160006ENS_18__default_init_tagE, symObjAddr: 0xC90, symBinAddr: 0x1000035F0, symSize: 0x20 }
  - { offsetInCU: 0x993A, offset: 0xF7F6, size: 0x8, addend: 0x0, symName: __ZNSt3__19allocatorI6GPointEC2B7v160006Ev, symObjAddr: 0xCB0, symBinAddr: 0x100003610, symSize: 0x20 }
  - { offsetInCU: 0x9963, offset: 0xF81F, size: 0x8, addend: 0x0, symName: __ZNSt3__116__non_trivial_ifILb1ENS_9allocatorI6GPointEEEC2B7v160006Ev, symObjAddr: 0xCD0, symBinAddr: 0x100003630, symSize: 0x10 }
  - { offsetInCU: 0x998C, offset: 0xF848, size: 0x8, addend: 0x0, symName: __ZNSt3__16vectorIN5GPath4VerbENS_9allocatorIS2_EEEC2B7v160006Ev, symObjAddr: 0xCE0, symBinAddr: 0x100003640, symSize: 0x60 }
  - { offsetInCU: 0x99B5, offset: 0xF871, size: 0x8, addend: 0x0, symName: __ZNSt3__117__compressed_pairIPN5GPath4VerbENS_9allocatorIS2_EEEC1B7v160006IDnNS_18__default_init_tagEEEOT_OT0_, symObjAddr: 0xD40, symBinAddr: 0x1000036A0, symSize: 0x30 }
  - { offsetInCU: 0x9A0C, offset: 0xF8C8, size: 0x8, addend: 0x0, symName: __ZNSt3__117__compressed_pairIPN5GPath4VerbENS_9allocatorIS2_EEEC2B7v160006IDnNS_18__default_init_tagEEEOT_OT0_, symObjAddr: 0xD80, symBinAddr: 0x1000036E0, symSize: 0x40 }
  - { offsetInCU: 0x9A63, offset: 0xF91F, size: 0x8, addend: 0x0, symName: __ZNSt3__122__compressed_pair_elemIPN5GPath4VerbELi0ELb0EEC2B7v160006IDnvEEOT_, symObjAddr: 0xDC0, symBinAddr: 0x100003720, symSize: 0x20 }
  - { offsetInCU: 0x9AA4, offset: 0xF960, size: 0x8, addend: 0x0, symName: __ZNSt3__122__compressed_pair_elemINS_9allocatorIN5GPath4VerbEEELi1ELb1EEC2B7v160006ENS_18__default_init_tagE, symObjAddr: 0xDE0, symBinAddr: 0x100003740, symSize: 0x20 }
  - { offsetInCU: 0x9AD7, offset: 0xF993, size: 0x8, addend: 0x0, symName: __ZNSt3__19allocatorIN5GPath4VerbEEC2B7v160006Ev, symObjAddr: 0xE00, symBinAddr: 0x100003760, symSize: 0x20 }
  - { offsetInCU: 0x9B00, offset: 0xF9BC, size: 0x8, addend: 0x0, symName: __ZNSt3__116__non_trivial_ifILb1ENS_9allocatorIN5GPath4VerbEEEEC2B7v160006Ev, symObjAddr: 0xE20, symBinAddr: 0x100003780, symSize: 0x10 }
  - { offsetInCU: 0x9B29, offset: 0xF9E5, size: 0x8, addend: 0x0, symName: __ZNSt3__16vectorI6GPointNS_9allocatorIS1_EEED2B7v160006Ev, symObjAddr: 0xE30, symBinAddr: 0x100003790, symSize: 0x40 }
  - { offsetInCU: 0x9B52, offset: 0xFA0E, size: 0x8, addend: 0x0, symName: __ZNSt3__16vectorI6GPointNS_9allocatorIS1_EEE16__destroy_vectorC1ERS4_, symObjAddr: 0xE70, symBinAddr: 0x1000037D0, symSize: 0x30 }
  - { offsetInCU: 0x9B8A, offset: 0xFA46, size: 0x8, addend: 0x0, symName: __ZNSt3__16vectorI6GPointNS_9allocatorIS1_EEE16__destroy_vectorclB7v160006Ev, symObjAddr: 0xEA0, symBinAddr: 0x100003800, symSize: 0x90 }
  - { offsetInCU: 0x9BAE, offset: 0xFA6A, size: 0x8, addend: 0x0, symName: __ZNSt3__16vectorI6GPointNS_9allocatorIS1_EEE16__destroy_vectorC2ERS4_, symObjAddr: 0xF30, symBinAddr: 0x100003890, symSize: 0x20 }
  - { offsetInCU: 0x9BE6, offset: 0xFAA2, size: 0x8, addend: 0x0, symName: __ZNKSt3__16vectorI6GPointNS_9allocatorIS1_EEE17__annotate_deleteB7v160006Ev, symObjAddr: 0xF50, symBinAddr: 0x1000038B0, symSize: 0xB0 }
  - { offsetInCU: 0x9C0A, offset: 0xFAC6, size: 0x8, addend: 0x0, symName: __ZNSt3__16vectorI6GPointNS_9allocatorIS1_EEE7__clearB7v160006Ev, symObjAddr: 0x1010, symBinAddr: 0x100003970, symSize: 0x20 }
  - { offsetInCU: 0x9C2F, offset: 0xFAEB, size: 0x8, addend: 0x0, symName: __ZNSt3__116allocator_traitsINS_9allocatorI6GPointEEE10deallocateB7v160006ERS3_PS2_m, symObjAddr: 0x1030, symBinAddr: 0x100003990, symSize: 0x30 }
  - { offsetInCU: 0x9C70, offset: 0xFB2C, size: 0x8, addend: 0x0, symName: __ZNSt3__16vectorI6GPointNS_9allocatorIS1_EEE7__allocB7v160006Ev, symObjAddr: 0x1060, symBinAddr: 0x1000039C0, symSize: 0x20 }
  - { offsetInCU: 0x9C94, offset: 0xFB50, size: 0x8, addend: 0x0, symName: __ZNKSt3__16vectorI6GPointNS_9allocatorIS1_EEE8capacityB7v160006Ev, symObjAddr: 0x1080, symBinAddr: 0x1000039E0, symSize: 0x30 }
  - { offsetInCU: 0x9CB8, offset: 0xFB74, size: 0x8, addend: 0x0, symName: __ZNKSt3__16vectorI6GPointNS_9allocatorIS1_EEE31__annotate_contiguous_containerB7v160006EPKvS6_S6_S6_, symObjAddr: 0x10B0, symBinAddr: 0x100003A10, symSize: 0x20 }
  - { offsetInCU: 0x9D0C, offset: 0xFBC8, size: 0x8, addend: 0x0, symName: __ZNKSt3__16vectorI6GPointNS_9allocatorIS1_EEE4sizeB7v160006Ev, symObjAddr: 0x10D0, symBinAddr: 0x100003A30, symSize: 0x20 }
  - { offsetInCU: 0x9D30, offset: 0xFBEC, size: 0x8, addend: 0x0, symName: __ZNSt3__16vectorI6GPointNS_9allocatorIS1_EEE22__base_destruct_at_endB7v160006EPS1_, symObjAddr: 0x10F0, symBinAddr: 0x100003A50, symSize: 0x80 }
  - { offsetInCU: 0x9D73, offset: 0xFC2F, size: 0x8, addend: 0x0, symName: __ZNSt3__116allocator_traitsINS_9allocatorI6GPointEEE7destroyB7v160006IS2_vEEvRS3_PT_, symObjAddr: 0x1170, symBinAddr: 0x100003AD0, symSize: 0x30 }
  - { offsetInCU: 0x9DAF, offset: 0xFC6B, size: 0x8, addend: 0x0, symName: __ZNSt3__19allocatorI6GPointE7destroyB7v160006EPS1_, symObjAddr: 0x11B0, symBinAddr: 0x100003B10, symSize: 0x10 }
  - { offsetInCU: 0x9DE1, offset: 0xFC9D, size: 0x8, addend: 0x0, symName: __ZNSt3__19allocatorI6GPointE10deallocateB7v160006EPS1_m, symObjAddr: 0x11C0, symBinAddr: 0x100003B20, symSize: 0x40 }
  - { offsetInCU: 0x9E21, offset: 0xFCDD, size: 0x8, addend: 0x0, symName: __ZNSt3__117__compressed_pairIP6GPointNS_9allocatorIS1_EEE6secondB7v160006Ev, symObjAddr: 0x1320, symBinAddr: 0x100003C80, symSize: 0x20 }
  - { offsetInCU: 0x9E45, offset: 0xFD01, size: 0x8, addend: 0x0, symName: __ZNSt3__122__compressed_pair_elemINS_9allocatorI6GPointEELi1ELb1EE5__getB7v160006Ev, symObjAddr: 0x1340, symBinAddr: 0x100003CA0, symSize: 0x10 }
  - { offsetInCU: 0x9E69, offset: 0xFD25, size: 0x8, addend: 0x0, symName: __ZNKSt3__16vectorI6GPointNS_9allocatorIS1_EEE9__end_capB7v160006Ev, symObjAddr: 0x1350, symBinAddr: 0x100003CB0, symSize: 0x20 }
  - { offsetInCU: 0x9E8D, offset: 0xFD49, size: 0x8, addend: 0x0, symName: __ZNKSt3__117__compressed_pairIP6GPointNS_9allocatorIS1_EEE5firstB7v160006Ev, symObjAddr: 0x1370, symBinAddr: 0x100003CD0, symSize: 0x20 }
  - { offsetInCU: 0x9EB1, offset: 0xFD6D, size: 0x8, addend: 0x0, symName: __ZNKSt3__122__compressed_pair_elemIP6GPointLi0ELb0EE5__getB7v160006Ev, symObjAddr: 0x1390, symBinAddr: 0x100003CF0, symSize: 0x10 }
  - { offsetInCU: 0x9ED5, offset: 0xFD91, size: 0x8, addend: 0x0, symName: __ZNSt3__16vectorIN5GPath4VerbENS_9allocatorIS2_EEED2B7v160006Ev, symObjAddr: 0x13A0, symBinAddr: 0x100003D00, symSize: 0x40 }
  - { offsetInCU: 0x9EFE, offset: 0xFDBA, size: 0x8, addend: 0x0, symName: __ZNSt3__16vectorIN5GPath4VerbENS_9allocatorIS2_EEE16__destroy_vectorC1ERS5_, symObjAddr: 0x13E0, symBinAddr: 0x100003D40, symSize: 0x30 }
  - { offsetInCU: 0x9F36, offset: 0xFDF2, size: 0x8, addend: 0x0, symName: __ZNSt3__16vectorIN5GPath4VerbENS_9allocatorIS2_EEE16__destroy_vectorclB7v160006Ev, symObjAddr: 0x1410, symBinAddr: 0x100003D70, symSize: 0x90 }
  - { offsetInCU: 0x9F5A, offset: 0xFE16, size: 0x8, addend: 0x0, symName: __ZNSt3__16vectorIN5GPath4VerbENS_9allocatorIS2_EEE16__destroy_vectorC2ERS5_, symObjAddr: 0x14A0, symBinAddr: 0x100003E00, symSize: 0x20 }
  - { offsetInCU: 0x9F92, offset: 0xFE4E, size: 0x8, addend: 0x0, symName: __ZNKSt3__16vectorIN5GPath4VerbENS_9allocatorIS2_EEE17__annotate_deleteB7v160006Ev, symObjAddr: 0x14C0, symBinAddr: 0x100003E20, symSize: 0xB0 }
  - { offsetInCU: 0x9FB6, offset: 0xFE72, size: 0x8, addend: 0x0, symName: __ZNSt3__16vectorIN5GPath4VerbENS_9allocatorIS2_EEE7__clearB7v160006Ev, symObjAddr: 0x1580, symBinAddr: 0x100003EE0, symSize: 0x20 }
  - { offsetInCU: 0x9FDB, offset: 0xFE97, size: 0x8, addend: 0x0, symName: __ZNSt3__116allocator_traitsINS_9allocatorIN5GPath4VerbEEEE10deallocateB7v160006ERS4_PS3_m, symObjAddr: 0x15A0, symBinAddr: 0x100003F00, symSize: 0x30 }
  - { offsetInCU: 0xA01C, offset: 0xFED8, size: 0x8, addend: 0x0, symName: __ZNSt3__16vectorIN5GPath4VerbENS_9allocatorIS2_EEE7__allocB7v160006Ev, symObjAddr: 0x15D0, symBinAddr: 0x100003F30, symSize: 0x20 }
  - { offsetInCU: 0xA040, offset: 0xFEFC, size: 0x8, addend: 0x0, symName: __ZNKSt3__16vectorIN5GPath4VerbENS_9allocatorIS2_EEE8capacityB7v160006Ev, symObjAddr: 0x15F0, symBinAddr: 0x100003F50, symSize: 0x30 }
  - { offsetInCU: 0xA064, offset: 0xFF20, size: 0x8, addend: 0x0, symName: __ZNKSt3__16vectorIN5GPath4VerbENS_9allocatorIS2_EEE31__annotate_contiguous_containerB7v160006EPKvS7_S7_S7_, symObjAddr: 0x1620, symBinAddr: 0x100003F80, symSize: 0x20 }
  - { offsetInCU: 0xA0B8, offset: 0xFF74, size: 0x8, addend: 0x0, symName: __ZNSt3__16vectorIN5GPath4VerbENS_9allocatorIS2_EEE22__base_destruct_at_endB7v160006EPS2_, symObjAddr: 0x1640, symBinAddr: 0x100003FA0, symSize: 0x80 }
  - { offsetInCU: 0xA0FB, offset: 0xFFB7, size: 0x8, addend: 0x0, symName: __ZNSt3__116allocator_traitsINS_9allocatorIN5GPath4VerbEEEE7destroyB7v160006IS3_vEEvRS4_PT_, symObjAddr: 0x16C0, symBinAddr: 0x100004020, symSize: 0x30 }
  - { offsetInCU: 0xA137, offset: 0xFFF3, size: 0x8, addend: 0x0, symName: __ZNSt3__19allocatorIN5GPath4VerbEE7destroyB7v160006EPS2_, symObjAddr: 0x1700, symBinAddr: 0x100004060, symSize: 0x10 }
  - { offsetInCU: 0xA169, offset: 0x10025, size: 0x8, addend: 0x0, symName: __ZNSt3__19allocatorIN5GPath4VerbEE10deallocateB7v160006EPS2_m, symObjAddr: 0x1710, symBinAddr: 0x100004070, symSize: 0x40 }
  - { offsetInCU: 0xA1A9, offset: 0x10065, size: 0x8, addend: 0x0, symName: __ZNSt3__117__compressed_pairIPN5GPath4VerbENS_9allocatorIS2_EEE6secondB7v160006Ev, symObjAddr: 0x1750, symBinAddr: 0x1000040B0, symSize: 0x20 }
  - { offsetInCU: 0xA1CD, offset: 0x10089, size: 0x8, addend: 0x0, symName: __ZNSt3__122__compressed_pair_elemINS_9allocatorIN5GPath4VerbEEELi1ELb1EE5__getB7v160006Ev, symObjAddr: 0x1770, symBinAddr: 0x1000040D0, symSize: 0x10 }
  - { offsetInCU: 0xA1F1, offset: 0x100AD, size: 0x8, addend: 0x0, symName: __ZNKSt3__16vectorIN5GPath4VerbENS_9allocatorIS2_EEE9__end_capB7v160006Ev, symObjAddr: 0x1780, symBinAddr: 0x1000040E0, symSize: 0x20 }
  - { offsetInCU: 0xA215, offset: 0x100D1, size: 0x8, addend: 0x0, symName: __ZNKSt3__117__compressed_pairIPN5GPath4VerbENS_9allocatorIS2_EEE5firstB7v160006Ev, symObjAddr: 0x17A0, symBinAddr: 0x100004100, symSize: 0x20 }
  - { offsetInCU: 0xA239, offset: 0x100F5, size: 0x8, addend: 0x0, symName: __ZNKSt3__122__compressed_pair_elemIPN5GPath4VerbELi0ELb0EE5__getB7v160006Ev, symObjAddr: 0x17C0, symBinAddr: 0x100004120, symSize: 0x10 }
  - { offsetInCU: 0xA25D, offset: 0x10119, size: 0x8, addend: 0x0, symName: __ZNSt3__16vectorI6GPointNS_9allocatorIS1_EEE19__copy_assign_allocB7v160006ERKS4_, symObjAddr: 0x17D0, symBinAddr: 0x100004130, symSize: 0x30 }
  - { offsetInCU: 0xA290, offset: 0x1014C, size: 0x8, addend: 0x0, symName: __ZNSt3__16vectorI6GPointNS_9allocatorIS1_EEE6assignIPS1_Li0EEEvT_S7_, symObjAddr: 0x1800, symBinAddr: 0x100004160, symSize: 0x160 }
  - { offsetInCU: 0xA32E, offset: 0x101EA, size: 0x8, addend: 0x0, symName: __ZNSt3__16vectorI6GPointNS_9allocatorIS1_EEE19__copy_assign_allocB7v160006ERKS4_NS_17integral_constantIbLb0EEE, symObjAddr: 0x1960, symBinAddr: 0x1000042C0, symSize: 0x10 }
  - { offsetInCU: 0xA36A, offset: 0x10226, size: 0x8, addend: 0x0, symName: __ZNSt3__16vectorI6GPointNS_9allocatorIS1_EEE18__construct_at_endIPS1_Li0EEEvT_S7_m, symObjAddr: 0x1A30, symBinAddr: 0x100004390, symSize: 0x90 }
  - { offsetInCU: 0xA3DC, offset: 0x10298, size: 0x8, addend: 0x0, symName: __ZNSt3__16vectorI6GPointNS_9allocatorIS1_EEE17__destruct_at_endB7v160006EPS1_, symObjAddr: 0x1AC0, symBinAddr: 0x100004420, symSize: 0x60 }
  - { offsetInCU: 0xA41E, offset: 0x102DA, size: 0x8, addend: 0x0, symName: __ZNSt3__16vectorI6GPointNS_9allocatorIS1_EEE13__vdeallocateEv, symObjAddr: 0x1B20, symBinAddr: 0x100004480, symSize: 0x80 }
  - { offsetInCU: 0xA445, offset: 0x10301, size: 0x8, addend: 0x0, symName: __ZNSt3__16vectorI6GPointNS_9allocatorIS1_EEE11__vallocateB7v160006Em, symObjAddr: 0x1BA0, symBinAddr: 0x100004500, symSize: 0xA0 }
  - { offsetInCU: 0xA487, offset: 0x10343, size: 0x8, addend: 0x0, symName: __ZNKSt3__16vectorI6GPointNS_9allocatorIS1_EEE11__recommendB7v160006Em, symObjAddr: 0x1C40, symBinAddr: 0x1000045A0, symSize: 0xA0 }
  - { offsetInCU: 0xA4FE, offset: 0x103BA, size: 0x8, addend: 0x0, symName: __ZNKSt3__114__copy_trivialclB7v160006I6GPointS2_Li0EEENS_4pairIPT_PT0_EES5_S5_S7_, symObjAddr: 0x1EC0, symBinAddr: 0x100004820, symSize: 0x40 }
  - { offsetInCU: 0xA569, offset: 0x10425, size: 0x8, addend: 0x0, symName: __ZNSt3__14pairIP6GPointS2_EC1B7v160006IRS2_S2_LPv0EEEOT_OT0_, symObjAddr: 0x2060, symBinAddr: 0x1000049C0, symSize: 0x30 }
  - { offsetInCU: 0xA5C6, offset: 0x10482, size: 0x8, addend: 0x0, symName: __ZNSt3__14pairIP6GPointS2_EC2B7v160006IRS2_S2_LPv0EEEOT_OT0_, symObjAddr: 0x2090, symBinAddr: 0x1000049F0, symSize: 0x30 }
  - { offsetInCU: 0xA624, offset: 0x104E0, size: 0x8, addend: 0x0, symName: __ZNSt3__118__unwrap_iter_implIP6GPointLb1EE8__unwrapB7v160006ES2_, symObjAddr: 0x20C0, symBinAddr: 0x100004A20, symSize: 0x20 }
  - { offsetInCU: 0xA646, offset: 0x10502, size: 0x8, addend: 0x0, symName: __ZNSt3__14pairIP6GPointS2_EC1B7v160006IS2_S2_LPv0EEEOT_OT0_, symObjAddr: 0x20E0, symBinAddr: 0x100004A40, symSize: 0x30 }
  - { offsetInCU: 0xA6A3, offset: 0x1055F, size: 0x8, addend: 0x0, symName: __ZNSt3__14pairIP6GPointS2_EC2B7v160006IS2_S2_LPv0EEEOT_OT0_, symObjAddr: 0x2110, symBinAddr: 0x100004A70, symSize: 0x30 }
  - { offsetInCU: 0xA701, offset: 0x105BD, size: 0x8, addend: 0x0, symName: __ZNSt3__118__unwrap_iter_implIP6GPointLb1EE8__rewrapB7v160006ES2_S2_, symObjAddr: 0x2140, symBinAddr: 0x100004AA0, symSize: 0x50 }
  - { offsetInCU: 0xA74A, offset: 0x10606, size: 0x8, addend: 0x0, symName: __ZNSt3__16vectorI6GPointNS_9allocatorIS1_EEE21_ConstructTransactionC1B7v160006ERS4_m, symObjAddr: 0x2190, symBinAddr: 0x100004AF0, symSize: 0x30 }
  - { offsetInCU: 0xA791, offset: 0x1064D, size: 0x8, addend: 0x0, symName: __ZNSt3__16vectorI6GPointNS_9allocatorIS1_EEE21_ConstructTransactionD1B7v160006Ev, symObjAddr: 0x22C0, symBinAddr: 0x100004C20, symSize: 0x20 }
  - { offsetInCU: 0xA7BA, offset: 0x10676, size: 0x8, addend: 0x0, symName: __ZNSt3__16vectorI6GPointNS_9allocatorIS1_EEE21_ConstructTransactionC2B7v160006ERS4_m, symObjAddr: 0x22E0, symBinAddr: 0x100004C40, symSize: 0x40 }
  - { offsetInCU: 0xA801, offset: 0x106BD, size: 0x8, addend: 0x0, symName: __ZNSt3__129_AllocatorDestroyRangeReverseINS_9allocatorI6GPointEEPS2_EC1B7v160006ERS3_RS4_S7_, symObjAddr: 0x2380, symBinAddr: 0x100004CE0, symSize: 0x40 }
  - { offsetInCU: 0xA858, offset: 0x10714, size: 0x8, addend: 0x0, symName: __ZNSt3__116allocator_traitsINS_9allocatorI6GPointEEE9constructB7v160006IS2_JRS2_EvEEvRS3_PT_DpOT0_, symObjAddr: 0x23C0, symBinAddr: 0x100004D20, symSize: 0x30 }
  - { offsetInCU: 0xA8AE, offset: 0x1076A, size: 0x8, addend: 0x0, symName: __ZNSt3__128__exception_guard_exceptionsINS_29_AllocatorDestroyRangeReverseINS_9allocatorI6GPointEEPS3_EEE10__completeB7v160006Ev, symObjAddr: 0x23F0, symBinAddr: 0x100004D50, symSize: 0x20 }
  - { offsetInCU: 0xA8D2, offset: 0x1078E, size: 0x8, addend: 0x0, symName: __ZNSt3__128__exception_guard_exceptionsINS_29_AllocatorDestroyRangeReverseINS_9allocatorI6GPointEEPS3_EEED1B7v160006Ev, symObjAddr: 0x2410, symBinAddr: 0x100004D70, symSize: 0x20 }
  - { offsetInCU: 0xA8FB, offset: 0x107B7, size: 0x8, addend: 0x0, symName: __ZNSt3__128__exception_guard_exceptionsINS_29_AllocatorDestroyRangeReverseINS_9allocatorI6GPointEEPS3_EEEC1B7v160006ES6_, symObjAddr: 0x2430, symBinAddr: 0x100004D90, symSize: 0x40 }
  - { offsetInCU: 0xA932, offset: 0x107EE, size: 0x8, addend: 0x0, symName: __ZNSt3__128__exception_guard_exceptionsINS_29_AllocatorDestroyRangeReverseINS_9allocatorI6GPointEEPS3_EEEC2B7v160006ES6_, symObjAddr: 0x2470, symBinAddr: 0x100004DD0, symSize: 0x30 }
  - { offsetInCU: 0xA969, offset: 0x10825, size: 0x8, addend: 0x0, symName: __ZNSt3__129_AllocatorDestroyRangeReverseINS_9allocatorI6GPointEEPS2_EC2B7v160006ERS3_RS4_S7_, symObjAddr: 0x24A0, symBinAddr: 0x100004E00, symSize: 0x40 }
  - { offsetInCU: 0xA9BF, offset: 0x1087B, size: 0x8, addend: 0x0, symName: __ZNSt3__19allocatorI6GPointE9constructB7v160006IS1_JRS1_EEEvPT_DpOT0_, symObjAddr: 0x24E0, symBinAddr: 0x100004E40, symSize: 0x20 }
  - { offsetInCU: 0xAA13, offset: 0x108CF, size: 0x8, addend: 0x0, symName: __ZNSt3__128__exception_guard_exceptionsINS_29_AllocatorDestroyRangeReverseINS_9allocatorI6GPointEEPS3_EEED2B7v160006Ev, symObjAddr: 0x2500, symBinAddr: 0x100004E60, symSize: 0x40 }
  - { offsetInCU: 0xAA3C, offset: 0x108F8, size: 0x8, addend: 0x0, symName: __ZNKSt3__129_AllocatorDestroyRangeReverseINS_9allocatorI6GPointEEPS2_EclB7v160006Ev, symObjAddr: 0x2540, symBinAddr: 0x100004EA0, symSize: 0x60 }
  - { offsetInCU: 0xAA60, offset: 0x1091C, size: 0x8, addend: 0x0, symName: __ZNSt3__116reverse_iteratorIP6GPointEC1B7v160006ES2_, symObjAddr: 0x2610, symBinAddr: 0x100004F70, symSize: 0x30 }
  - { offsetInCU: 0xAA97, offset: 0x10953, size: 0x8, addend: 0x0, symName: __ZNSt3__116reverse_iteratorIP6GPointEppB7v160006Ev, symObjAddr: 0x26A0, symBinAddr: 0x100005000, symSize: 0x20 }
  - { offsetInCU: 0xAABB, offset: 0x10977, size: 0x8, addend: 0x0, symName: __ZNKSt3__116reverse_iteratorIP6GPointE4baseB7v160006Ev, symObjAddr: 0x26C0, symBinAddr: 0x100005020, symSize: 0x20 }
  - { offsetInCU: 0xAAE5, offset: 0x109A1, size: 0x8, addend: 0x0, symName: __ZNSt3__119__to_address_helperINS_16reverse_iteratorIP6GPointEEvE6__callB7v160006ERKS4_, symObjAddr: 0x26E0, symBinAddr: 0x100005040, symSize: 0x40 }
  - { offsetInCU: 0xAB07, offset: 0x109C3, size: 0x8, addend: 0x0, symName: __ZNKSt3__116reverse_iteratorIP6GPointEptB7v160006Ev, symObjAddr: 0x2720, symBinAddr: 0x100005080, symSize: 0x20 }
  - { offsetInCU: 0xAB2B, offset: 0x109E7, size: 0x8, addend: 0x0, symName: __ZNKSt3__116reverse_iteratorIP6GPointEdeB7v160006Ev, symObjAddr: 0x2740, symBinAddr: 0x1000050A0, symSize: 0x30 }
  - { offsetInCU: 0xAB5D, offset: 0x10A19, size: 0x8, addend: 0x0, symName: __ZNSt3__116reverse_iteratorIP6GPointEC2B7v160006ES2_, symObjAddr: 0x2770, symBinAddr: 0x1000050D0, symSize: 0x30 }
  - { offsetInCU: 0xAB94, offset: 0x10A50, size: 0x8, addend: 0x0, symName: __ZNSt3__16vectorI6GPointNS_9allocatorIS1_EEE21_ConstructTransactionD2B7v160006Ev, symObjAddr: 0x27A0, symBinAddr: 0x100005100, symSize: 0x20 }
  - { offsetInCU: 0xABBD, offset: 0x10A79, size: 0x8, addend: 0x0, symName: __ZNSt3__16vectorI6GPointNS_9allocatorIS1_EEE27__invalidate_iterators_pastB7v160006EPS1_, symObjAddr: 0x27C0, symBinAddr: 0x100005120, symSize: 0x10 }
  - { offsetInCU: 0xABF3, offset: 0x10AAF, size: 0x8, addend: 0x0, symName: __ZNKSt3__16vectorI6GPointNS_9allocatorIS1_EEE17__annotate_shrinkB7v160006Em, symObjAddr: 0x27D0, symBinAddr: 0x100005130, symSize: 0xA0 }
  - { offsetInCU: 0xAC26, offset: 0x10AE2, size: 0x8, addend: 0x0, symName: __ZNSt3__16vectorI6GPointNS_9allocatorIS1_EEE9__end_capB7v160006Ev, symObjAddr: 0x2870, symBinAddr: 0x1000051D0, symSize: 0x20 }
  - { offsetInCU: 0xAC4A, offset: 0x10B06, size: 0x8, addend: 0x0, symName: __ZNSt3__117__compressed_pairIP6GPointNS_9allocatorIS1_EEE5firstB7v160006Ev, symObjAddr: 0x2890, symBinAddr: 0x1000051F0, symSize: 0x20 }
  - { offsetInCU: 0xAC6E, offset: 0x10B2A, size: 0x8, addend: 0x0, symName: __ZNSt3__122__compressed_pair_elemIP6GPointLi0ELb0EE5__getB7v160006Ev, symObjAddr: 0x28B0, symBinAddr: 0x100005210, symSize: 0x10 }
  - { offsetInCU: 0xAC92, offset: 0x10B4E, size: 0x8, addend: 0x0, symName: __ZNKSt3__16vectorI6GPointNS_9allocatorIS1_EEE8max_sizeEv, symObjAddr: 0x28C0, symBinAddr: 0x100005220, symSize: 0x60 }
  - { offsetInCU: 0xACB9, offset: 0x10B75, size: 0x8, addend: 0x0, symName: __ZNKSt3__16vectorI6GPointNS_9allocatorIS1_EEE20__throw_length_errorB7v160006Ev, symObjAddr: 0x2920, symBinAddr: 0x100005280, symSize: 0x20 }
  - { offsetInCU: 0xACDD, offset: 0x10B99, size: 0x8, addend: 0x0, symName: __ZNKSt3__16vectorI6GPointNS_9allocatorIS1_EEE14__annotate_newB7v160006Em, symObjAddr: 0x2980, symBinAddr: 0x1000052E0, symSize: 0xB0 }
  - { offsetInCU: 0xAD1B, offset: 0x10BD7, size: 0x8, addend: 0x0, symName: __ZNSt3__116allocator_traitsINS_9allocatorI6GPointEEE8max_sizeB7v160006IS3_vEEmRKS3_, symObjAddr: 0x2A60, symBinAddr: 0x1000053C0, symSize: 0x20 }
  - { offsetInCU: 0xAD48, offset: 0x10C04, size: 0x8, addend: 0x0, symName: __ZNKSt3__16vectorI6GPointNS_9allocatorIS1_EEE7__allocB7v160006Ev, symObjAddr: 0x2A80, symBinAddr: 0x1000053E0, symSize: 0x20 }
  - { offsetInCU: 0xAD6D, offset: 0x10C29, size: 0x8, addend: 0x0, symName: __ZNSt3__114numeric_limitsIlE3maxB7v160006Ev, symObjAddr: 0x2AA0, symBinAddr: 0x100005400, symSize: 0x10 }
  - { offsetInCU: 0xAD94, offset: 0x10C50, size: 0x8, addend: 0x0, symName: __ZNKSt3__16__lessImmEclB7v160006ERKmS3_, symObjAddr: 0x2B00, symBinAddr: 0x100005460, symSize: 0x30 }
  - { offsetInCU: 0xADD4, offset: 0x10C90, size: 0x8, addend: 0x0, symName: __ZNKSt3__19allocatorI6GPointE8max_sizeB7v160006Ev, symObjAddr: 0x2B30, symBinAddr: 0x100005490, symSize: 0x20 }
  - { offsetInCU: 0xADF8, offset: 0x10CB4, size: 0x8, addend: 0x0, symName: __ZNKSt3__117__compressed_pairIP6GPointNS_9allocatorIS1_EEE6secondB7v160006Ev, symObjAddr: 0x2B50, symBinAddr: 0x1000054B0, symSize: 0x20 }
  - { offsetInCU: 0xAE1C, offset: 0x10CD8, size: 0x8, addend: 0x0, symName: __ZNKSt3__122__compressed_pair_elemINS_9allocatorI6GPointEELi1ELb1EE5__getB7v160006Ev, symObjAddr: 0x2B70, symBinAddr: 0x1000054D0, symSize: 0x10 }
  - { offsetInCU: 0xAE41, offset: 0x10CFD, size: 0x8, addend: 0x0, symName: __ZNSt3__123__libcpp_numeric_limitsIlLb1EE3maxB7v160006Ev, symObjAddr: 0x2B80, symBinAddr: 0x1000054E0, symSize: 0x10 }
  - { offsetInCU: 0xAE54, offset: 0x10D10, size: 0x8, addend: 0x0, symName: __ZNSt12length_errorC1B7v160006EPKc, symObjAddr: 0x2C00, symBinAddr: 0x100005560, symSize: 0x30 }
  - { offsetInCU: 0xAE8B, offset: 0x10D47, size: 0x8, addend: 0x0, symName: __ZNSt12length_errorC2B7v160006EPKc, symObjAddr: 0x2C30, symBinAddr: 0x100005590, symSize: 0x40 }
  - { offsetInCU: 0xAEC2, offset: 0x10D7E, size: 0x8, addend: 0x0, symName: __ZNSt3__19allocatorI6GPointE8allocateB7v160006Em, symObjAddr: 0x2C70, symBinAddr: 0x1000055D0, symSize: 0x50 }
  - { offsetInCU: 0xAEF4, offset: 0x10DB0, size: 0x8, addend: 0x0, symName: __ZNSt3__16vectorIN5GPath4VerbENS_9allocatorIS2_EEE19__copy_assign_allocB7v160006ERKS5_, symObjAddr: 0x2E30, symBinAddr: 0x100005790, symSize: 0x30 }
  - { offsetInCU: 0xAF27, offset: 0x10DE3, size: 0x8, addend: 0x0, symName: __ZNSt3__16vectorIN5GPath4VerbENS_9allocatorIS2_EEE6assignIPS2_Li0EEEvT_S8_, symObjAddr: 0x2E60, symBinAddr: 0x1000057C0, symSize: 0x160 }
  - { offsetInCU: 0xAFC5, offset: 0x10E81, size: 0x8, addend: 0x0, symName: __ZNSt3__16vectorIN5GPath4VerbENS_9allocatorIS2_EEE19__copy_assign_allocB7v160006ERKS5_NS_17integral_constantIbLb0EEE, symObjAddr: 0x2FC0, symBinAddr: 0x100005920, symSize: 0x10 }
  - { offsetInCU: 0xB001, offset: 0x10EBD, size: 0x8, addend: 0x0, symName: __ZNSt3__16vectorIN5GPath4VerbENS_9allocatorIS2_EEE18__construct_at_endIPS2_Li0EEEvT_S8_m, symObjAddr: 0x3090, symBinAddr: 0x1000059F0, symSize: 0x90 }
  - { offsetInCU: 0xB073, offset: 0x10F2F, size: 0x8, addend: 0x0, symName: __ZNSt3__16vectorIN5GPath4VerbENS_9allocatorIS2_EEE17__destruct_at_endB7v160006EPS2_, symObjAddr: 0x3120, symBinAddr: 0x100005A80, symSize: 0x60 }
  - { offsetInCU: 0xB0B5, offset: 0x10F71, size: 0x8, addend: 0x0, symName: __ZNSt3__16vectorIN5GPath4VerbENS_9allocatorIS2_EEE13__vdeallocateEv, symObjAddr: 0x3180, symBinAddr: 0x100005AE0, symSize: 0x80 }
  - { offsetInCU: 0xB0DC, offset: 0x10F98, size: 0x8, addend: 0x0, symName: __ZNSt3__16vectorIN5GPath4VerbENS_9allocatorIS2_EEE11__vallocateB7v160006Em, symObjAddr: 0x3200, symBinAddr: 0x100005B60, symSize: 0xA0 }
  - { offsetInCU: 0xB11E, offset: 0x10FDA, size: 0x8, addend: 0x0, symName: __ZNKSt3__16vectorIN5GPath4VerbENS_9allocatorIS2_EEE11__recommendB7v160006Em, symObjAddr: 0x32A0, symBinAddr: 0x100005C00, symSize: 0xA0 }
  - { offsetInCU: 0xB18B, offset: 0x11047, size: 0x8, addend: 0x0, symName: __ZNKSt3__114__copy_trivialclB7v160006IN5GPath4VerbES3_Li0EEENS_4pairIPT_PT0_EES6_S6_S8_, symObjAddr: 0x3510, symBinAddr: 0x100005E70, symSize: 0x40 }
  - { offsetInCU: 0xB1F6, offset: 0x110B2, size: 0x8, addend: 0x0, symName: __ZNSt3__14pairIPN5GPath4VerbES3_EC1B7v160006IRS3_S3_LPv0EEEOT_OT0_, symObjAddr: 0x36B0, symBinAddr: 0x100006010, symSize: 0x30 }
  - { offsetInCU: 0xB253, offset: 0x1110F, size: 0x8, addend: 0x0, symName: __ZNSt3__14pairIPN5GPath4VerbES3_EC2B7v160006IRS3_S3_LPv0EEEOT_OT0_, symObjAddr: 0x36E0, symBinAddr: 0x100006040, symSize: 0x30 }
  - { offsetInCU: 0xB2B1, offset: 0x1116D, size: 0x8, addend: 0x0, symName: __ZNSt3__118__unwrap_iter_implIPN5GPath4VerbELb1EE8__unwrapB7v160006ES3_, symObjAddr: 0x3710, symBinAddr: 0x100006070, symSize: 0x20 }
  - { offsetInCU: 0xB2D3, offset: 0x1118F, size: 0x8, addend: 0x0, symName: __ZNSt3__14pairIPN5GPath4VerbES3_EC1B7v160006IS3_S3_LPv0EEEOT_OT0_, symObjAddr: 0x3730, symBinAddr: 0x100006090, symSize: 0x30 }
  - { offsetInCU: 0xB330, offset: 0x111EC, size: 0x8, addend: 0x0, symName: __ZNSt3__14pairIPN5GPath4VerbES3_EC2B7v160006IS3_S3_LPv0EEEOT_OT0_, symObjAddr: 0x3760, symBinAddr: 0x1000060C0, symSize: 0x30 }
  - { offsetInCU: 0xB38E, offset: 0x1124A, size: 0x8, addend: 0x0, symName: __ZNSt3__118__unwrap_iter_implIPN5GPath4VerbELb1EE8__rewrapB7v160006ES3_S3_, symObjAddr: 0x3790, symBinAddr: 0x1000060F0, symSize: 0x50 }
  - { offsetInCU: 0xB3D7, offset: 0x11293, size: 0x8, addend: 0x0, symName: __ZNSt3__16vectorIN5GPath4VerbENS_9allocatorIS2_EEE21_ConstructTransactionC1B7v160006ERS5_m, symObjAddr: 0x37E0, symBinAddr: 0x100006140, symSize: 0x30 }
  - { offsetInCU: 0xB41E, offset: 0x112DA, size: 0x8, addend: 0x0, symName: __ZNSt3__16vectorIN5GPath4VerbENS_9allocatorIS2_EEE21_ConstructTransactionD1B7v160006Ev, symObjAddr: 0x3910, symBinAddr: 0x100006270, symSize: 0x20 }
  - { offsetInCU: 0xB447, offset: 0x11303, size: 0x8, addend: 0x0, symName: __ZNSt3__16vectorIN5GPath4VerbENS_9allocatorIS2_EEE21_ConstructTransactionC2B7v160006ERS5_m, symObjAddr: 0x3930, symBinAddr: 0x100006290, symSize: 0x40 }
  - { offsetInCU: 0xB48E, offset: 0x1134A, size: 0x8, addend: 0x0, symName: __ZNSt3__129_AllocatorDestroyRangeReverseINS_9allocatorIN5GPath4VerbEEEPS3_EC1B7v160006ERS4_RS5_S8_, symObjAddr: 0x39D0, symBinAddr: 0x100006330, symSize: 0x40 }
  - { offsetInCU: 0xB4E5, offset: 0x113A1, size: 0x8, addend: 0x0, symName: __ZNSt3__116allocator_traitsINS_9allocatorIN5GPath4VerbEEEE9constructB7v160006IS3_JRS3_EvEEvRS4_PT_DpOT0_, symObjAddr: 0x3A10, symBinAddr: 0x100006370, symSize: 0x30 }
  - { offsetInCU: 0xB53B, offset: 0x113F7, size: 0x8, addend: 0x0, symName: __ZNSt3__128__exception_guard_exceptionsINS_29_AllocatorDestroyRangeReverseINS_9allocatorIN5GPath4VerbEEEPS4_EEE10__completeB7v160006Ev, symObjAddr: 0x3A40, symBinAddr: 0x1000063A0, symSize: 0x20 }
  - { offsetInCU: 0xB55F, offset: 0x1141B, size: 0x8, addend: 0x0, symName: __ZNSt3__128__exception_guard_exceptionsINS_29_AllocatorDestroyRangeReverseINS_9allocatorIN5GPath4VerbEEEPS4_EEED1B7v160006Ev, symObjAddr: 0x3A60, symBinAddr: 0x1000063C0, symSize: 0x20 }
  - { offsetInCU: 0xB588, offset: 0x11444, size: 0x8, addend: 0x0, symName: __ZNSt3__128__exception_guard_exceptionsINS_29_AllocatorDestroyRangeReverseINS_9allocatorIN5GPath4VerbEEEPS4_EEEC1B7v160006ES7_, symObjAddr: 0x3A80, symBinAddr: 0x1000063E0, symSize: 0x40 }
  - { offsetInCU: 0xB5BF, offset: 0x1147B, size: 0x8, addend: 0x0, symName: __ZNSt3__128__exception_guard_exceptionsINS_29_AllocatorDestroyRangeReverseINS_9allocatorIN5GPath4VerbEEEPS4_EEEC2B7v160006ES7_, symObjAddr: 0x3AC0, symBinAddr: 0x100006420, symSize: 0x30 }
  - { offsetInCU: 0xB5F6, offset: 0x114B2, size: 0x8, addend: 0x0, symName: __ZNSt3__129_AllocatorDestroyRangeReverseINS_9allocatorIN5GPath4VerbEEEPS3_EC2B7v160006ERS4_RS5_S8_, symObjAddr: 0x3AF0, symBinAddr: 0x100006450, symSize: 0x40 }
  - { offsetInCU: 0xB64C, offset: 0x11508, size: 0x8, addend: 0x0, symName: __ZNSt3__19allocatorIN5GPath4VerbEE9constructB7v160006IS2_JRS2_EEEvPT_DpOT0_, symObjAddr: 0x3B30, symBinAddr: 0x100006490, symSize: 0x20 }
  - { offsetInCU: 0xB6A0, offset: 0x1155C, size: 0x8, addend: 0x0, symName: __ZNSt3__128__exception_guard_exceptionsINS_29_AllocatorDestroyRangeReverseINS_9allocatorIN5GPath4VerbEEEPS4_EEED2B7v160006Ev, symObjAddr: 0x3B50, symBinAddr: 0x1000064B0, symSize: 0x40 }
  - { offsetInCU: 0xB6C9, offset: 0x11585, size: 0x8, addend: 0x0, symName: __ZNKSt3__129_AllocatorDestroyRangeReverseINS_9allocatorIN5GPath4VerbEEEPS3_EclB7v160006Ev, symObjAddr: 0x3B90, symBinAddr: 0x1000064F0, symSize: 0x60 }
  - { offsetInCU: 0xB6ED, offset: 0x115A9, size: 0x8, addend: 0x0, symName: __ZNSt3__116reverse_iteratorIPN5GPath4VerbEEC1B7v160006ES3_, symObjAddr: 0x3C60, symBinAddr: 0x1000065C0, symSize: 0x30 }
  - { offsetInCU: 0xB724, offset: 0x115E0, size: 0x8, addend: 0x0, symName: __ZNSt3__116reverse_iteratorIPN5GPath4VerbEEppB7v160006Ev, symObjAddr: 0x3CF0, symBinAddr: 0x100006650, symSize: 0x20 }
  - { offsetInCU: 0xB748, offset: 0x11604, size: 0x8, addend: 0x0, symName: __ZNKSt3__116reverse_iteratorIPN5GPath4VerbEE4baseB7v160006Ev, symObjAddr: 0x3D10, symBinAddr: 0x100006670, symSize: 0x20 }
  - { offsetInCU: 0xB772, offset: 0x1162E, size: 0x8, addend: 0x0, symName: __ZNSt3__119__to_address_helperINS_16reverse_iteratorIPN5GPath4VerbEEEvE6__callB7v160006ERKS5_, symObjAddr: 0x3D30, symBinAddr: 0x100006690, symSize: 0x40 }
  - { offsetInCU: 0xB794, offset: 0x11650, size: 0x8, addend: 0x0, symName: __ZNKSt3__116reverse_iteratorIPN5GPath4VerbEEptB7v160006Ev, symObjAddr: 0x3D70, symBinAddr: 0x1000066D0, symSize: 0x20 }
  - { offsetInCU: 0xB7B8, offset: 0x11674, size: 0x8, addend: 0x0, symName: __ZNKSt3__116reverse_iteratorIPN5GPath4VerbEEdeB7v160006Ev, symObjAddr: 0x3D90, symBinAddr: 0x1000066F0, symSize: 0x30 }
  - { offsetInCU: 0xB7EA, offset: 0x116A6, size: 0x8, addend: 0x0, symName: __ZNSt3__116reverse_iteratorIPN5GPath4VerbEEC2B7v160006ES3_, symObjAddr: 0x3DC0, symBinAddr: 0x100006720, symSize: 0x30 }
  - { offsetInCU: 0xB821, offset: 0x116DD, size: 0x8, addend: 0x0, symName: __ZNSt3__16vectorIN5GPath4VerbENS_9allocatorIS2_EEE21_ConstructTransactionD2B7v160006Ev, symObjAddr: 0x3DF0, symBinAddr: 0x100006750, symSize: 0x20 }
  - { offsetInCU: 0xB84A, offset: 0x11706, size: 0x8, addend: 0x0, symName: __ZNSt3__16vectorIN5GPath4VerbENS_9allocatorIS2_EEE27__invalidate_iterators_pastB7v160006EPS2_, symObjAddr: 0x3E10, symBinAddr: 0x100006770, symSize: 0x10 }
  - { offsetInCU: 0xB880, offset: 0x1173C, size: 0x8, addend: 0x0, symName: __ZNKSt3__16vectorIN5GPath4VerbENS_9allocatorIS2_EEE17__annotate_shrinkB7v160006Em, symObjAddr: 0x3E20, symBinAddr: 0x100006780, symSize: 0xA0 }
  - { offsetInCU: 0xB8B3, offset: 0x1176F, size: 0x8, addend: 0x0, symName: __ZNSt3__16vectorIN5GPath4VerbENS_9allocatorIS2_EEE9__end_capB7v160006Ev, symObjAddr: 0x3EC0, symBinAddr: 0x100006820, symSize: 0x20 }
  - { offsetInCU: 0xB8D7, offset: 0x11793, size: 0x8, addend: 0x0, symName: __ZNSt3__117__compressed_pairIPN5GPath4VerbENS_9allocatorIS2_EEE5firstB7v160006Ev, symObjAddr: 0x3EE0, symBinAddr: 0x100006840, symSize: 0x20 }
  - { offsetInCU: 0xB8FB, offset: 0x117B7, size: 0x8, addend: 0x0, symName: __ZNSt3__122__compressed_pair_elemIPN5GPath4VerbELi0ELb0EE5__getB7v160006Ev, symObjAddr: 0x3F00, symBinAddr: 0x100006860, symSize: 0x10 }
  - { offsetInCU: 0xB91F, offset: 0x117DB, size: 0x8, addend: 0x0, symName: __ZNKSt3__16vectorIN5GPath4VerbENS_9allocatorIS2_EEE8max_sizeEv, symObjAddr: 0x3F10, symBinAddr: 0x100006870, symSize: 0x60 }
  - { offsetInCU: 0xB946, offset: 0x11802, size: 0x8, addend: 0x0, symName: __ZNKSt3__16vectorIN5GPath4VerbENS_9allocatorIS2_EEE20__throw_length_errorB7v160006Ev, symObjAddr: 0x3F70, symBinAddr: 0x1000068D0, symSize: 0x20 }
  - { offsetInCU: 0xB96A, offset: 0x11826, size: 0x8, addend: 0x0, symName: __ZNKSt3__16vectorIN5GPath4VerbENS_9allocatorIS2_EEE14__annotate_newB7v160006Em, symObjAddr: 0x3FD0, symBinAddr: 0x100006930, symSize: 0xB0 }
  - { offsetInCU: 0xB9A8, offset: 0x11864, size: 0x8, addend: 0x0, symName: __ZNSt3__116allocator_traitsINS_9allocatorIN5GPath4VerbEEEE8max_sizeB7v160006IS4_vEEmRKS4_, symObjAddr: 0x4080, symBinAddr: 0x1000069E0, symSize: 0x20 }
  - { offsetInCU: 0xB9D5, offset: 0x11891, size: 0x8, addend: 0x0, symName: __ZNKSt3__16vectorIN5GPath4VerbENS_9allocatorIS2_EEE7__allocB7v160006Ev, symObjAddr: 0x40A0, symBinAddr: 0x100006A00, symSize: 0x20 }
  - { offsetInCU: 0xB9F9, offset: 0x118B5, size: 0x8, addend: 0x0, symName: __ZNKSt3__19allocatorIN5GPath4VerbEE8max_sizeB7v160006Ev, symObjAddr: 0x40C0, symBinAddr: 0x100006A20, symSize: 0x20 }
  - { offsetInCU: 0xBA1D, offset: 0x118D9, size: 0x8, addend: 0x0, symName: __ZNKSt3__117__compressed_pairIPN5GPath4VerbENS_9allocatorIS2_EEE6secondB7v160006Ev, symObjAddr: 0x40E0, symBinAddr: 0x100006A40, symSize: 0x20 }
  - { offsetInCU: 0xBA41, offset: 0x118FD, size: 0x8, addend: 0x0, symName: __ZNKSt3__122__compressed_pair_elemINS_9allocatorIN5GPath4VerbEEELi1ELb1EE5__getB7v160006Ev, symObjAddr: 0x4100, symBinAddr: 0x100006A60, symSize: 0x10 }
  - { offsetInCU: 0xBA65, offset: 0x11921, size: 0x8, addend: 0x0, symName: __ZNSt3__19allocatorIN5GPath4VerbEE8allocateB7v160006Em, symObjAddr: 0x4110, symBinAddr: 0x100006A70, symSize: 0x4E }
  - { offsetInCU: 0x26, offset: 0x11A89, size: 0x8, addend: 0x0, symName: __ZN5GTime7GetMSecEv, symObjAddr: 0x0, symBinAddr: 0x100006AC0, symSize: 0x5C }
  - { offsetInCU: 0x2926, offset: 0x14389, size: 0x8, addend: 0x0, symName: __ZN5GTime7GetMSecEv, symObjAddr: 0x0, symBinAddr: 0x100006AC0, symSize: 0x5C }
  - { offsetInCU: 0x52, offset: 0x14437, size: 0x8, addend: 0x0, symName: _LODEPNG_VERSION_STRING, symObjAddr: 0x17F90, symBinAddr: 0x100040000, symSize: 0x0 }
  - { offsetInCU: 0x6E, offset: 0x14453, size: 0x8, addend: 0x0, symName: _lodepng_default_compress_settings, symObjAddr: 0x183A0, symBinAddr: 0x10003B0D0, symSize: 0x0 }
  - { offsetInCU: 0x178, offset: 0x1455D, size: 0x8, addend: 0x0, symName: _lodepng_default_decompress_settings, symObjAddr: 0x183D0, symBinAddr: 0x10003B100, symSize: 0x0 }
  - { offsetInCU: 0x20C, offset: 0x145F1, size: 0x8, addend: 0x0, symName: __ZL10CLCL_ORDER, symObjAddr: 0x18610, symBinAddr: 0x10003B340, symSize: 0x0 }
  - { offsetInCU: 0x238, offset: 0x1461D, size: 0x8, addend: 0x0, symName: __ZL10LENGTHBASE, symObjAddr: 0x18410, symBinAddr: 0x10003B140, symSize: 0x0 }
  - { offsetInCU: 0x25F, offset: 0x14644, size: 0x8, addend: 0x0, symName: __ZL11LENGTHEXTRA, symObjAddr: 0x18490, symBinAddr: 0x10003B1C0, symSize: 0x0 }
  - { offsetInCU: 0x27A, offset: 0x1465F, size: 0x8, addend: 0x0, symName: __ZL12DISTANCEBASE, symObjAddr: 0x18510, symBinAddr: 0x10003B240, symSize: 0x0 }
  - { offsetInCU: 0x2A1, offset: 0x14686, size: 0x8, addend: 0x0, symName: __ZL13DISTANCEEXTRA, symObjAddr: 0x18590, symBinAddr: 0x10003B2C0, symSize: 0x0 }
  - { offsetInCU: 0x2F0, offset: 0x146D5, size: 0x8, addend: 0x0, symName: __ZL19lodepng_crc32_table, symObjAddr: 0x17FA0, symBinAddr: 0x100040010, symSize: 0x0 }
  - { offsetInCU: 0x319, offset: 0x146FE, size: 0x8, addend: 0x0, symName: __ZL8ADAM7_DX, symObjAddr: 0x18660, symBinAddr: 0x10003B390, symSize: 0x0 }
  - { offsetInCU: 0x340, offset: 0x14725, size: 0x8, addend: 0x0, symName: __ZL8ADAM7_IX, symObjAddr: 0x18680, symBinAddr: 0x10003B3B0, symSize: 0x0 }
  - { offsetInCU: 0x35B, offset: 0x14740, size: 0x8, addend: 0x0, symName: __ZL8ADAM7_DY, symObjAddr: 0x186A0, symBinAddr: 0x10003B3D0, symSize: 0x0 }
  - { offsetInCU: 0x376, offset: 0x1475B, size: 0x8, addend: 0x0, symName: __ZL8ADAM7_IY, symObjAddr: 0x186C0, symBinAddr: 0x10003B3F0, symSize: 0x0 }
  - { offsetInCU: 0x43ED, offset: 0x187D2, size: 0x8, addend: 0x0, symName: __ZNSt3__17advanceB7v160006IPhllvEEvRT_T0_, symObjAddr: 0x15930, symBinAddr: 0x10001C000, symSize: 0x50 }
  - { offsetInCU: 0x50AE, offset: 0x19493, size: 0x8, addend: 0x0, symName: __ZNSt3__112__to_addressB7v160006IKcEEPT_S3_, symObjAddr: 0x13950, symBinAddr: 0x10001A460, symSize: 0x10 }
  - { offsetInCU: 0x5116, offset: 0x194FB, size: 0x8, addend: 0x0, symName: __ZNSt3__112__to_addressB7v160006IhEEPT_S2_, symObjAddr: 0x14030, symBinAddr: 0x10001AB40, symSize: 0x10 }
  - { offsetInCU: 0x514B, offset: 0x19530, size: 0x8, addend: 0x0, symName: __ZNSt3__119__allocate_at_leastB7v160006INS_9allocatorIhEEEENS_19__allocation_resultINS_16allocator_traitsIT_E7pointerEEERS5_m, symObjAddr: 0x145C0, symBinAddr: 0x10001AEA0, symSize: 0x40 }
  - { offsetInCU: 0x518E, offset: 0x19573, size: 0x8, addend: 0x0, symName: __ZNSt3__142__uninitialized_allocator_move_if_noexceptB7v160006INS_9allocatorIhEENS_16reverse_iteratorIPhEES5_hvEET1_RT_T0_S9_S6_, symObjAddr: 0x149D0, symBinAddr: 0x10001B1A0, symSize: 0x70 }
  - { offsetInCU: 0x520B, offset: 0x195F0, size: 0x8, addend: 0x0, symName: __ZNSt3__14swapB7v160006IPhEENS_9enable_ifIXaasr21is_move_constructibleIT_EE5valuesr18is_move_assignableIS3_EE5valueEvE4typeERS3_S6_, symObjAddr: 0x14A90, symBinAddr: 0x10001B260, symSize: 0x40 }
  - { offsetInCU: 0x525C, offset: 0x19641, size: 0x8, addend: 0x0, symName: __ZNSt3__125__debug_db_invalidate_allB7v160006INS_6vectorIhNS_9allocatorIhEEEEEEvPT_, symObjAddr: 0x14B70, symBinAddr: 0x10001B340, symSize: 0x10 }
  - { offsetInCU: 0x528D, offset: 0x19672, size: 0x8, addend: 0x0, symName: __ZNSt3__14moveB7v160006INS_16reverse_iteratorIPhEES3_EET0_T_S5_S4_, symObjAddr: 0x14BC0, symBinAddr: 0x10001B390, symSize: 0x80 }
  - { offsetInCU: 0x52E7, offset: 0x196CC, size: 0x8, addend: 0x0, symName: __ZNSt3__16__moveB7v160006INS_17_ClassicAlgPolicyENS_16reverse_iteratorIPhEES4_S4_EENS_4pairIT0_T2_EES6_T1_S7_, symObjAddr: 0x14C40, symBinAddr: 0x10001B410, symSize: 0x90 }
  - { offsetInCU: 0x5353, offset: 0x19738, size: 0x8, addend: 0x0, symName: __ZNSt3__123__dispatch_copy_or_moveB7v160006INS_17_ClassicAlgPolicyENS_11__move_loopIS1_EENS_14__move_trivialENS_16reverse_iteratorIPhEES7_S7_EENS_4pairIT2_T4_EES9_T3_SA_, symObjAddr: 0x14CD0, symBinAddr: 0x10001B4A0, symSize: 0x90 }
  - { offsetInCU: 0x53D1, offset: 0x197B6, size: 0x8, addend: 0x0, symName: __ZNSt3__121__unwrap_and_dispatchB7v160006INS_10__overloadINS_11__move_loopINS_17_ClassicAlgPolicyEEENS_14__move_trivialEEENS_16reverse_iteratorIPhEES9_S9_Li0EEENS_4pairIT0_T2_EESB_T1_SC_, symObjAddr: 0x14D60, symBinAddr: 0x10001B530, symSize: 0x210 }
  - { offsetInCU: 0x5460, offset: 0x19845, size: 0x8, addend: 0x0, symName: __ZNSt3__114__unwrap_rangeB7v160006INS_16reverse_iteratorIPhEES3_EENS_4pairIT0_S5_EET_S7_, symObjAddr: 0x14F70, symBinAddr: 0x10001B740, symSize: 0x90 }
  - { offsetInCU: 0x55D2, offset: 0x199B7, size: 0x8, addend: 0x0, symName: __ZNSt3__113__unwrap_iterB7v160006INS_16reverse_iteratorIPhEENS_18__unwrap_iter_implIS3_Lb0EEELi0EEEDTclsrT0_8__unwrapclsr3stdE7declvalIT_EEEES7_, symObjAddr: 0x150A0, symBinAddr: 0x10001B870, symSize: 0x40 }
  - { offsetInCU: 0x5616, offset: 0x199FB, size: 0x8, addend: 0x0, symName: __ZNSt3__19make_pairB7v160006INS_16reverse_iteratorIPhEES3_EENS_4pairINS_18__unwrap_ref_decayIT_E4typeENS5_IT0_E4typeEEEOS6_OS9_, symObjAddr: 0x150E0, symBinAddr: 0x10001B8B0, symSize: 0x30 }
  - { offsetInCU: 0x5665, offset: 0x19A4A, size: 0x8, addend: 0x0, symName: __ZNSt3__114__rewrap_rangeB7v160006INS_16reverse_iteratorIPhEES3_EET_S4_T0_, symObjAddr: 0x15110, symBinAddr: 0x10001B8E0, symSize: 0x60 }
  - { offsetInCU: 0x56B1, offset: 0x19A96, size: 0x8, addend: 0x0, symName: __ZNSt3__113__rewrap_iterB7v160006INS_16reverse_iteratorIPhEES3_NS_18__unwrap_iter_implIS3_Lb0EEEEET_S6_T0_, symObjAddr: 0x15170, symBinAddr: 0x10001B940, symSize: 0x70 }
  - { offsetInCU: 0x5706, offset: 0x19AEB, size: 0x8, addend: 0x0, symName: __ZNSt3__1neB7v160006IPhS1_EEbRKNS_16reverse_iteratorIT_EERKNS2_IT0_EE, symObjAddr: 0x151E0, symBinAddr: 0x10001B9B0, symSize: 0x40 }
  - { offsetInCU: 0x5804, offset: 0x19BE9, size: 0x8, addend: 0x0, symName: __ZNSt3__1miB7v160006IPKhPhEEDTmicldtfp_4baseEcldtfp0_4baseEERKNS_11__wrap_iterIT_EERKNS5_IT0_EE, symObjAddr: 0x15890, symBinAddr: 0x10001BF60, symSize: 0x40 }
  - { offsetInCU: 0x5850, offset: 0x19C35, size: 0x8, addend: 0x0, symName: __ZNSt3__18distanceB7v160006IPhEENS_15iterator_traitsIT_E15difference_typeES3_S3_, symObjAddr: 0x15900, symBinAddr: 0x10001BFD0, symSize: 0x30 }
  - { offsetInCU: 0x5893, offset: 0x19C78, size: 0x8, addend: 0x0, symName: __ZNSt3__14copyB7v160006IPhS1_EET0_T_S3_S2_, symObjAddr: 0x15B20, symBinAddr: 0x10001C1F0, symSize: 0x40 }
  - { offsetInCU: 0x58ED, offset: 0x19CD2, size: 0x8, addend: 0x0, symName: __ZNSt3__110__distanceB7v160006IPhEENS_15iterator_traitsIT_E15difference_typeES3_S3_NS_26random_access_iterator_tagE, symObjAddr: 0x15DC0, symBinAddr: 0x10001C490, symSize: 0x20 }
  - { offsetInCU: 0x593A, offset: 0x19D1F, size: 0x8, addend: 0x0, symName: __ZNSt3__121__convert_to_integralB7v160006El, symObjAddr: 0x15DE0, symBinAddr: 0x10001C4B0, symSize: 0x10 }
  - { offsetInCU: 0x5966, offset: 0x19D4B, size: 0x8, addend: 0x0, symName: __ZNSt3__19__advanceB7v160006IPhEEvRT_NS_15iterator_traitsIS2_E15difference_typeENS_26random_access_iterator_tagE, symObjAddr: 0x15DF0, symBinAddr: 0x10001C4C0, symSize: 0x20 }
  - { offsetInCU: 0x59AF, offset: 0x19D94, size: 0x8, addend: 0x0, symName: __ZNSt3__130__uninitialized_allocator_copyB7v160006INS_9allocatorIhEEPhS3_S3_EET2_RT_T0_T1_S4_, symObjAddr: 0x15E10, symBinAddr: 0x10001C4E0, symSize: 0x100 }
  - { offsetInCU: 0x5A4D, offset: 0x19E32, size: 0x8, addend: 0x0, symName: __ZNSt3__122__make_exception_guardB7v160006INS_29_AllocatorDestroyRangeReverseINS_9allocatorIhEEPhEEEENS_28__exception_guard_exceptionsIT_EES7_, symObjAddr: 0x15F10, symBinAddr: 0x10001C5E0, symSize: 0x60 }
  - { offsetInCU: 0x5A82, offset: 0x19E67, size: 0x8, addend: 0x0, symName: __ZNSt3__119__allocator_destroyB7v160006INS_9allocatorIhEENS_16reverse_iteratorIPhEES5_EEvRT_T0_T1_, symObjAddr: 0x16190, symBinAddr: 0x10001C860, symSize: 0x70 }
  - { offsetInCU: 0x5AE5, offset: 0x19ECA, size: 0x8, addend: 0x0, symName: __ZNSt3__112__to_addressB7v160006INS_16reverse_iteratorIPhEEvEENS_5decayIDTclsr19__to_address_helperIT_EE6__callclsr3stdE7declvalIRKS5_EEEEE4typeES7_, symObjAddr: 0x16200, symBinAddr: 0x10001C8D0, symSize: 0x20 }
  - { offsetInCU: 0x5B44, offset: 0x19F29, size: 0x8, addend: 0x0, symName: __ZNSt3__113move_backwardB7v160006IPhS1_EET0_T_S3_S2_, symObjAddr: 0x162B0, symBinAddr: 0x10001C980, symSize: 0x40 }
  - { offsetInCU: 0x5B9E, offset: 0x19F83, size: 0x8, addend: 0x0, symName: __ZNSt3__115__move_backwardB7v160006INS_17_ClassicAlgPolicyEPhS2_S2_EENS_4pairIT0_T2_EES4_T1_S5_, symObjAddr: 0x16310, symBinAddr: 0x10001C9E0, symSize: 0x40 }
  - { offsetInCU: 0x5C0A, offset: 0x19FEF, size: 0x8, addend: 0x0, symName: __ZNSt3__123__dispatch_copy_or_moveB7v160006INS_17_ClassicAlgPolicyENS_20__move_backward_loopIS1_EENS_23__move_backward_trivialEPhS5_S5_EENS_4pairIT2_T4_EES7_T3_S8_, symObjAddr: 0x16350, symBinAddr: 0x10001CA20, symSize: 0x40 }
  - { offsetInCU: 0x5C88, offset: 0x1A06D, size: 0x8, addend: 0x0, symName: __ZNSt3__121__unwrap_and_dispatchB7v160006INS_10__overloadINS_20__move_backward_loopINS_17_ClassicAlgPolicyEEENS_23__move_backward_trivialEEEPhS7_S7_Li0EEENS_4pairIT0_T2_EES9_T1_SA_, symObjAddr: 0x16390, symBinAddr: 0x10001CA60, symSize: 0xB0 }
  - { offsetInCU: 0x5D17, offset: 0x1A0FC, size: 0x8, addend: 0x0, symName: __ZNSt3__114__unwrap_rangeB7v160006IPhS1_EENS_4pairIT0_S3_EET_S5_, symObjAddr: 0x16440, symBinAddr: 0x10001CB10, symSize: 0x50 }
  - { offsetInCU: 0x5EDB, offset: 0x1A2C0, size: 0x8, addend: 0x0, symName: __ZNSt3__113__unwrap_iterB7v160006IPhNS_18__unwrap_iter_implIS1_Lb1EEELi0EEEDTclsrT0_8__unwrapclsr3stdE7declvalIT_EEEES5_, symObjAddr: 0x164D0, symBinAddr: 0x10001CBA0, symSize: 0x20 }
  - { offsetInCU: 0x5F1F, offset: 0x1A304, size: 0x8, addend: 0x0, symName: __ZNSt3__19make_pairB7v160006IPhS1_EENS_4pairINS_18__unwrap_ref_decayIT_E4typeENS3_IT0_E4typeEEEOS4_OS7_, symObjAddr: 0x164F0, symBinAddr: 0x10001CBC0, symSize: 0x30 }
  - { offsetInCU: 0x5F6E, offset: 0x1A353, size: 0x8, addend: 0x0, symName: __ZNSt3__114__rewrap_rangeB7v160006IPhS1_EET_S2_T0_, symObjAddr: 0x16520, symBinAddr: 0x10001CBF0, symSize: 0x30 }
  - { offsetInCU: 0x5FBA, offset: 0x1A39F, size: 0x8, addend: 0x0, symName: __ZNSt3__113__rewrap_iterB7v160006IPhS1_NS_18__unwrap_iter_implIS1_Lb1EEEEET_S4_T0_, symObjAddr: 0x16550, symBinAddr: 0x10001CC20, symSize: 0x40 }
  - { offsetInCU: 0x600F, offset: 0x1A3F4, size: 0x8, addend: 0x0, symName: __ZNSt3__128__copy_backward_trivial_implB7v160006IhhEENS_4pairIPT_PT0_EES3_S3_S5_, symObjAddr: 0x16590, symBinAddr: 0x10001CC60, symSize: 0x70 }
  - { offsetInCU: 0x6077, offset: 0x1A45C, size: 0x8, addend: 0x0, symName: __ZNSt3__19make_pairB7v160006IRPhS2_EENS_4pairINS_18__unwrap_ref_decayIT_E4typeENS4_IT0_E4typeEEEOS5_OS8_, symObjAddr: 0x16600, symBinAddr: 0x10001CCD0, symSize: 0x30 }
  - { offsetInCU: 0x6119, offset: 0x1A4FE, size: 0x8, addend: 0x0, symName: __ZNSt3__16__copyB7v160006INS_17_ClassicAlgPolicyEPhS2_S2_EENS_4pairIT0_T2_EES4_T1_S5_, symObjAddr: 0x16750, symBinAddr: 0x10001CE20, symSize: 0x40 }
  - { offsetInCU: 0x6185, offset: 0x1A56A, size: 0x8, addend: 0x0, symName: __ZNSt3__123__dispatch_copy_or_moveB7v160006INS_17_ClassicAlgPolicyENS_11__copy_loopIS1_EENS_14__copy_trivialEPhS5_S5_EENS_4pairIT2_T4_EES7_T3_S8_, symObjAddr: 0x16790, symBinAddr: 0x10001CE60, symSize: 0x40 }
  - { offsetInCU: 0x6203, offset: 0x1A5E8, size: 0x8, addend: 0x0, symName: __ZNSt3__121__unwrap_and_dispatchB7v160006INS_10__overloadINS_11__copy_loopINS_17_ClassicAlgPolicyEEENS_14__copy_trivialEEEPhS7_S7_Li0EEENS_4pairIT0_T2_EES9_T1_SA_, symObjAddr: 0x167D0, symBinAddr: 0x10001CEA0, symSize: 0xB0 }
  - { offsetInCU: 0x62D8, offset: 0x1A6BD, size: 0x8, addend: 0x0, symName: __ZNSt3__119__copy_trivial_implB7v160006IhhEENS_4pairIPT_PT0_EES3_S3_S5_, symObjAddr: 0x168C0, symBinAddr: 0x10001CF90, symSize: 0x70 }
  - { offsetInCU: 0x6340, offset: 0x1A725, size: 0x8, addend: 0x0, symName: __ZNSt3__19make_pairB7v160006IRPhS1_EENS_4pairINS_18__unwrap_ref_decayIT_E4typeENS4_IT0_E4typeEEEOS5_OS8_, symObjAddr: 0x16930, symBinAddr: 0x10001D000, symSize: 0x30 }
  - { offsetInCU: 0x638F, offset: 0x1A774, size: 0x8, addend: 0x0, symName: __ZNSt3__142__uninitialized_allocator_move_if_noexceptB7v160006INS_9allocatorIhEEPhS3_hvEET1_RT_T0_S7_S4_, symObjAddr: 0x169C0, symBinAddr: 0x10001D090, symSize: 0x30 }
  - { offsetInCU: 0x640C, offset: 0x1A7F1, size: 0x8, addend: 0x0, symName: __ZNSt3__14moveB7v160006IPhS1_EET0_T_S3_S2_, symObjAddr: 0x169F0, symBinAddr: 0x10001D0C0, symSize: 0x40 }
  - { offsetInCU: 0x6466, offset: 0x1A84B, size: 0x8, addend: 0x0, symName: __ZNSt3__16__moveB7v160006INS_17_ClassicAlgPolicyEPhS2_S2_EENS_4pairIT0_T2_EES4_T1_S5_, symObjAddr: 0x16A30, symBinAddr: 0x10001D100, symSize: 0x40 }
  - { offsetInCU: 0x64D2, offset: 0x1A8B7, size: 0x8, addend: 0x0, symName: __ZNSt3__123__dispatch_copy_or_moveB7v160006INS_17_ClassicAlgPolicyENS_11__move_loopIS1_EENS_14__move_trivialEPhS5_S5_EENS_4pairIT2_T4_EES7_T3_S8_, symObjAddr: 0x16A70, symBinAddr: 0x10001D140, symSize: 0x40 }
  - { offsetInCU: 0x6550, offset: 0x1A935, size: 0x8, addend: 0x0, symName: __ZNSt3__121__unwrap_and_dispatchB7v160006INS_10__overloadINS_11__move_loopINS_17_ClassicAlgPolicyEEENS_14__move_trivialEEEPhS7_S7_Li0EEENS_4pairIT0_T2_EES9_T1_SA_, symObjAddr: 0x16AB0, symBinAddr: 0x10001D180, symSize: 0xB0 }
  - { offsetInCU: 0x6625, offset: 0x1AA0A, size: 0x8, addend: 0x0, symName: __ZNSt3__119__debug_db_insert_cB7v160006INS_6vectorIhNS_9allocatorIhEEEEEEvPT_, symObjAddr: 0x16C30, symBinAddr: 0x10001D300, symSize: 0x10 }
  - { offsetInCU: 0x6656, offset: 0x1AA3B, size: 0x8, addend: 0x0, symName: __ZNSt3__118__debug_db_erase_cB7v160006INS_6vectorIhNS_9allocatorIhEEEEEEvPT_, symObjAddr: 0x16DF0, symBinAddr: 0x10001D4C0, symSize: 0x10 }
  - { offsetInCU: 0x6C0A, offset: 0x1AFEF, size: 0x8, addend: 0x0, symName: __ZNSt3__16vectorIhNS_9allocatorIhEEE26__swap_out_circular_bufferERNS_14__split_bufferIhRS2_EE, symObjAddr: 0x13E50, symBinAddr: 0x10001A960, symSize: 0x130 }
  - { offsetInCU: 0x6C88, offset: 0x1B06D, size: 0x8, addend: 0x0, symName: __ZNSt3__16vectorIhNS_9allocatorIhEEE26__swap_out_circular_bufferERNS_14__split_bufferIhRS2_EEPh, symObjAddr: 0x15C30, symBinAddr: 0x10001C300, symSize: 0x170 }
  - { offsetInCU: 0x8A53, offset: 0x1CE38, size: 0x8, addend: 0x0, symName: __Z20lodepng_read32bitIntPKh, symObjAddr: 0x0, symBinAddr: 0x100006B20, symSize: 0x40 }
  - { offsetInCU: 0x8A81, offset: 0x1CE66, size: 0x8, addend: 0x0, symName: __Z17lodepng_load_filePPhPmPKc, symObjAddr: 0x40, symBinAddr: 0x100006B60, symSize: 0xA0 }
  - { offsetInCU: 0x8ADD, offset: 0x1CEC2, size: 0x8, addend: 0x0, symName: __ZL16lodepng_filesizePKc, symObjAddr: 0xE0, symBinAddr: 0x100006C00, symSize: 0xB0 }
  - { offsetInCU: 0x8B2A, offset: 0x1CF0F, size: 0x8, addend: 0x0, symName: __ZL14lodepng_mallocm, symObjAddr: 0x190, symBinAddr: 0x100006CB0, symSize: 0x20 }
  - { offsetInCU: 0x8B56, offset: 0x1CF3B, size: 0x8, addend: 0x0, symName: __ZL19lodepng_buffer_filePhmPKc, symObjAddr: 0x1B0, symBinAddr: 0x100006CD0, symSize: 0x90 }
  - { offsetInCU: 0x8BC0, offset: 0x1CFA5, size: 0x8, addend: 0x0, symName: __Z17lodepng_save_filePKhmPKc, symObjAddr: 0x240, symBinAddr: 0x100006D60, symSize: 0x70 }
  - { offsetInCU: 0x8C1B, offset: 0x1D000, size: 0x8, addend: 0x0, symName: __Z28lodepng_huffman_code_lengthsPjPKjmj, symObjAddr: 0x2B0, symBinAddr: 0x100006DD0, symSize: 0x400 }
  - { offsetInCU: 0x8CE1, offset: 0x1D0C6, size: 0x8, addend: 0x0, symName: __ZL12bpmnode_sortP7BPMNodem, symObjAddr: 0x6B0, symBinAddr: 0x1000071D0, symSize: 0x2A0 }
  - { offsetInCU: 0x8DE1, offset: 0x1D1C6, size: 0x8, addend: 0x0, symName: __ZL14bpmnode_createP8BPMListsijP7BPMNode, symObjAddr: 0x950, symBinAddr: 0x100007470, symSize: 0x1E0 }
  - { offsetInCU: 0x8E78, offset: 0x1D25D, size: 0x8, addend: 0x0, symName: __ZL10boundaryPMP8BPMListsP7BPMNodemii, symObjAddr: 0xB30, symBinAddr: 0x100007650, symSize: 0x200 }
  - { offsetInCU: 0x8F0B, offset: 0x1D2F0, size: 0x8, addend: 0x0, symName: __ZL12lodepng_freePv, symObjAddr: 0xD30, symBinAddr: 0x100007850, symSize: 0x20 }
  - { offsetInCU: 0x8F32, offset: 0x1D317, size: 0x8, addend: 0x0, symName: __Z15lodepng_inflatePPhPmPKhmPK25LodePNGDecompressSettings, symObjAddr: 0xD50, symBinAddr: 0x100007870, symSize: 0x70 }
  - { offsetInCU: 0x8FBC, offset: 0x1D3A1, size: 0x8, addend: 0x0, symName: __ZL20ucvector_init_bufferP8ucvectorPhm, symObjAddr: 0xDC0, symBinAddr: 0x1000078E0, symSize: 0x40 }
  - { offsetInCU: 0x9005, offset: 0x1D3EA, size: 0x8, addend: 0x0, symName: __ZL16lodepng_inflatevP8ucvectorPKhmPK25LodePNGDecompressSettings, symObjAddr: 0xE00, symBinAddr: 0x100007920, symSize: 0x150 }
  - { offsetInCU: 0x90BB, offset: 0x1D4A0, size: 0x8, addend: 0x0, symName: __Z15lodepng_deflatePPhPmPKhmPK23LodePNGCompressSettings, symObjAddr: 0xF50, symBinAddr: 0x100007A70, symSize: 0x70 }
  - { offsetInCU: 0x9145, offset: 0x1D52A, size: 0x8, addend: 0x0, symName: __ZL16lodepng_deflatevP8ucvectorPKhmPK23LodePNGCompressSettings, symObjAddr: 0xFC0, symBinAddr: 0x100007AE0, symSize: 0x290 }
  - { offsetInCU: 0x923B, offset: 0x1D620, size: 0x8, addend: 0x0, symName: __Z23lodepng_zlib_decompressPPhPmPKhmPK25LodePNGDecompressSettings, symObjAddr: 0x1250, symBinAddr: 0x100007D70, symSize: 0x180 }
  - { offsetInCU: 0x9310, offset: 0x1D6F5, size: 0x8, addend: 0x0, symName: __ZL7inflatePPhPmPKhmPK25LodePNGDecompressSettings, symObjAddr: 0x13D0, symBinAddr: 0x100007EF0, symSize: 0x80 }
  - { offsetInCU: 0x937B, offset: 0x1D760, size: 0x8, addend: 0x0, symName: __ZL7adler32PKhj, symObjAddr: 0x1450, symBinAddr: 0x100007F70, symSize: 0x30 }
  - { offsetInCU: 0x93B8, offset: 0x1D79D, size: 0x8, addend: 0x0, symName: __Z21lodepng_zlib_compressPPhPmPKhmPK23LodePNGCompressSettings, symObjAddr: 0x1480, symBinAddr: 0x100007FA0, symSize: 0x170 }
  - { offsetInCU: 0x94E0, offset: 0x1D8C5, size: 0x8, addend: 0x0, symName: __ZL18ucvector_push_backP8ucvectorh, symObjAddr: 0x15F0, symBinAddr: 0x100008110, symSize: 0x70 }
  - { offsetInCU: 0x951E, offset: 0x1D903, size: 0x8, addend: 0x0, symName: __ZL7deflatePPhPmPKhmPK23LodePNGCompressSettings, symObjAddr: 0x1660, symBinAddr: 0x100008180, symSize: 0x80 }
  - { offsetInCU: 0x9589, offset: 0x1D96E, size: 0x8, addend: 0x0, symName: __ZL19lodepng_add32bitIntP8ucvectorj, symObjAddr: 0x16E0, symBinAddr: 0x100008200, symSize: 0x50 }
  - { offsetInCU: 0x95C2, offset: 0x1D9A7, size: 0x8, addend: 0x0, symName: __Z30lodepng_compress_settings_initP23LodePNGCompressSettings, symObjAddr: 0x1730, symBinAddr: 0x100008250, symSize: 0x70 }
  - { offsetInCU: 0x95EC, offset: 0x1D9D1, size: 0x8, addend: 0x0, symName: __Z32lodepng_decompress_settings_initP25LodePNGDecompressSettings, symObjAddr: 0x17A0, symBinAddr: 0x1000082C0, symSize: 0x40 }
  - { offsetInCU: 0x9616, offset: 0x1D9FB, size: 0x8, addend: 0x0, symName: __Z13lodepng_crc32PKhm, symObjAddr: 0x17E0, symBinAddr: 0x100008300, symSize: 0x80 }
  - { offsetInCU: 0x9671, offset: 0x1DA56, size: 0x8, addend: 0x0, symName: __Z20lodepng_chunk_lengthPKh, symObjAddr: 0x1860, symBinAddr: 0x100008380, symSize: 0x20 }
  - { offsetInCU: 0x969F, offset: 0x1DA84, size: 0x8, addend: 0x0, symName: __Z18lodepng_chunk_typePcPKh, symObjAddr: 0x1880, symBinAddr: 0x1000083A0, symSize: 0x50 }
  - { offsetInCU: 0x96E7, offset: 0x1DACC, size: 0x8, addend: 0x0, symName: __Z25lodepng_chunk_type_equalsPKhPKc, symObjAddr: 0x18D0, symBinAddr: 0x1000083F0, symSize: 0xB0 }
  - { offsetInCU: 0x9724, offset: 0x1DB09, size: 0x8, addend: 0x0, symName: __Z23lodepng_chunk_ancillaryPKh, symObjAddr: 0x1980, symBinAddr: 0x1000084A0, symSize: 0x20 }
  - { offsetInCU: 0x9752, offset: 0x1DB37, size: 0x8, addend: 0x0, symName: __Z21lodepng_chunk_privatePKh, symObjAddr: 0x19A0, symBinAddr: 0x1000084C0, symSize: 0x20 }
  - { offsetInCU: 0x9780, offset: 0x1DB65, size: 0x8, addend: 0x0, symName: __Z24lodepng_chunk_safetocopyPKh, symObjAddr: 0x19C0, symBinAddr: 0x1000084E0, symSize: 0x20 }
  - { offsetInCU: 0x97AE, offset: 0x1DB93, size: 0x8, addend: 0x0, symName: __Z18lodepng_chunk_dataPh, symObjAddr: 0x19E0, symBinAddr: 0x100008500, symSize: 0x20 }
  - { offsetInCU: 0x97DC, offset: 0x1DBC1, size: 0x8, addend: 0x0, symName: __Z24lodepng_chunk_data_constPKh, symObjAddr: 0x1A00, symBinAddr: 0x100008520, symSize: 0x20 }
  - { offsetInCU: 0x980A, offset: 0x1DBEF, size: 0x8, addend: 0x0, symName: __Z23lodepng_chunk_check_crcPKh, symObjAddr: 0x1A20, symBinAddr: 0x100008540, symSize: 0x80 }
  - { offsetInCU: 0x9865, offset: 0x1DC4A, size: 0x8, addend: 0x0, symName: __Z26lodepng_chunk_generate_crcPh, symObjAddr: 0x1AA0, symBinAddr: 0x1000085C0, symSize: 0x50 }
  - { offsetInCU: 0x98AE, offset: 0x1DC93, size: 0x8, addend: 0x0, symName: __ZL19lodepng_set32bitIntPhj, symObjAddr: 0x1AF0, symBinAddr: 0x100008610, symSize: 0x60 }
  - { offsetInCU: 0x98E7, offset: 0x1DCCC, size: 0x8, addend: 0x0, symName: __Z18lodepng_chunk_nextPh, symObjAddr: 0x1B50, symBinAddr: 0x100008670, symSize: 0x30 }
  - { offsetInCU: 0x9924, offset: 0x1DD09, size: 0x8, addend: 0x0, symName: __Z24lodepng_chunk_next_constPKh, symObjAddr: 0x1B80, symBinAddr: 0x1000086A0, symSize: 0x30 }
  - { offsetInCU: 0x9961, offset: 0x1DD46, size: 0x8, addend: 0x0, symName: __Z20lodepng_chunk_appendPPhPmPKh, symObjAddr: 0x1BB0, symBinAddr: 0x1000086D0, symSize: 0x100 }
  - { offsetInCU: 0x99F9, offset: 0x1DDDE, size: 0x8, addend: 0x0, symName: __ZL15lodepng_reallocPvm, symObjAddr: 0x1CB0, symBinAddr: 0x1000087D0, symSize: 0x30 }
  - { offsetInCU: 0x9A32, offset: 0x1DE17, size: 0x8, addend: 0x0, symName: __Z20lodepng_chunk_createPPhPmjPKcPKh, symObjAddr: 0x1CE0, symBinAddr: 0x100008800, symSize: 0x160 }
  - { offsetInCU: 0x9ADA, offset: 0x1DEBF, size: 0x8, addend: 0x0, symName: __Z23lodepng_color_mode_initP16LodePNGColorMode, symObjAddr: 0x1E40, symBinAddr: 0x100008960, symSize: 0x70 }
  - { offsetInCU: 0x9B04, offset: 0x1DEE9, size: 0x8, addend: 0x0, symName: __Z26lodepng_color_mode_cleanupP16LodePNGColorMode, symObjAddr: 0x1EB0, symBinAddr: 0x1000089D0, symSize: 0x20 }
  - { offsetInCU: 0x9B2E, offset: 0x1DF13, size: 0x8, addend: 0x0, symName: __Z21lodepng_palette_clearP16LodePNGColorMode, symObjAddr: 0x1ED0, symBinAddr: 0x1000089F0, symSize: 0x50 }
  - { offsetInCU: 0x9B58, offset: 0x1DF3D, size: 0x8, addend: 0x0, symName: __Z23lodepng_color_mode_copyP16LodePNGColorModePKS_, symObjAddr: 0x1F20, symBinAddr: 0x100008A40, symSize: 0xE0 }
  - { offsetInCU: 0x9BA4, offset: 0x1DF89, size: 0x8, addend: 0x0, symName: __Z19lodepng_palette_addP16LodePNGColorModehhhh, symObjAddr: 0x2000, symBinAddr: 0x100008B20, symSize: 0x100 }
  - { offsetInCU: 0x9C1D, offset: 0x1E002, size: 0x8, addend: 0x0, symName: __Z15lodepng_get_bppPK16LodePNGColorMode, symObjAddr: 0x2100, symBinAddr: 0x100008C20, symSize: 0x30 }
  - { offsetInCU: 0x9C4C, offset: 0x1E031, size: 0x8, addend: 0x0, symName: __ZL19lodepng_get_bpp_lct16LodePNGColorTypej, symObjAddr: 0x2130, symBinAddr: 0x100008C50, symSize: 0x20 }
  - { offsetInCU: 0x9C89, offset: 0x1E06E, size: 0x8, addend: 0x0, symName: __Z20lodepng_get_channelsPK16LodePNGColorMode, symObjAddr: 0x2150, symBinAddr: 0x100008C70, symSize: 0x20 }
  - { offsetInCU: 0x9CB8, offset: 0x1E09D, size: 0x8, addend: 0x0, symName: __ZL19getNumColorChannels16LodePNGColorType, symObjAddr: 0x2170, symBinAddr: 0x100008C90, symSize: 0x90 }
  - { offsetInCU: 0x9CE6, offset: 0x1E0CB, size: 0x8, addend: 0x0, symName: __Z25lodepng_is_greyscale_typePK16LodePNGColorMode, symObjAddr: 0x2200, symBinAddr: 0x100008D20, symSize: 0x40 }
  - { offsetInCU: 0x9D14, offset: 0x1E0F9, size: 0x8, addend: 0x0, symName: __Z21lodepng_is_alpha_typePK16LodePNGColorMode, symObjAddr: 0x2240, symBinAddr: 0x100008D60, symSize: 0x20 }
  - { offsetInCU: 0x9D42, offset: 0x1E127, size: 0x8, addend: 0x0, symName: __Z23lodepng_is_palette_typePK16LodePNGColorMode, symObjAddr: 0x2260, symBinAddr: 0x100008D80, symSize: 0x20 }
  - { offsetInCU: 0x9D70, offset: 0x1E155, size: 0x8, addend: 0x0, symName: __Z25lodepng_has_palette_alphaPK16LodePNGColorMode, symObjAddr: 0x2280, symBinAddr: 0x100008DA0, symSize: 0x70 }
  - { offsetInCU: 0x9DAD, offset: 0x1E192, size: 0x8, addend: 0x0, symName: __Z22lodepng_can_have_alphaPK16LodePNGColorMode, symObjAddr: 0x22F0, symBinAddr: 0x100008E10, symSize: 0x60 }
  - { offsetInCU: 0x9DDB, offset: 0x1E1C0, size: 0x8, addend: 0x0, symName: __Z24lodepng_get_raw_size_lctjj16LodePNGColorTypej, symObjAddr: 0x2350, symBinAddr: 0x100008E70, symSize: 0x60 }
  - { offsetInCU: 0x9E54, offset: 0x1E239, size: 0x8, addend: 0x0, symName: __Z20lodepng_get_raw_sizejjPK16LodePNGColorMode, symObjAddr: 0x23B0, symBinAddr: 0x100008ED0, symSize: 0x30 }
  - { offsetInCU: 0x9EA0, offset: 0x1E285, size: 0x8, addend: 0x0, symName: __Z18lodepng_clear_textP11LodePNGInfo, symObjAddr: 0x23E0, symBinAddr: 0x100008F00, symSize: 0x20 }
  - { offsetInCU: 0x9ECB, offset: 0x1E2B0, size: 0x8, addend: 0x0, symName: __ZL19LodePNGText_cleanupP11LodePNGInfo, symObjAddr: 0x2400, symBinAddr: 0x100008F20, symSize: 0x90 }
  - { offsetInCU: 0x9F04, offset: 0x1E2E9, size: 0x8, addend: 0x0, symName: __Z16lodepng_add_textP11LodePNGInfoPKcS2_, symObjAddr: 0x2490, symBinAddr: 0x100008FB0, symSize: 0x150 }
  - { offsetInCU: 0x9F6F, offset: 0x1E354, size: 0x8, addend: 0x0, symName: __ZL11string_initPPc, symObjAddr: 0x25E0, symBinAddr: 0x100009100, symSize: 0x30 }
  - { offsetInCU: 0x9F9A, offset: 0x1E37F, size: 0x8, addend: 0x0, symName: __ZL10string_setPPcPKc, symObjAddr: 0x2610, symBinAddr: 0x100009130, symSize: 0x80 }
  - { offsetInCU: 0x9FF1, offset: 0x1E3D6, size: 0x8, addend: 0x0, symName: __Z19lodepng_clear_itextP11LodePNGInfo, symObjAddr: 0x2690, symBinAddr: 0x1000091B0, symSize: 0x20 }
  - { offsetInCU: 0xA01C, offset: 0x1E401, size: 0x8, addend: 0x0, symName: __ZL20LodePNGIText_cleanupP11LodePNGInfo, symObjAddr: 0x26B0, symBinAddr: 0x1000091D0, symSize: 0xE0 }
  - { offsetInCU: 0xA055, offset: 0x1E43A, size: 0x8, addend: 0x0, symName: __Z17lodepng_add_itextP11LodePNGInfoPKcS2_S2_S2_, symObjAddr: 0x2790, symBinAddr: 0x1000092B0, symSize: 0x270 }
  - { offsetInCU: 0xA0FD, offset: 0x1E4E2, size: 0x8, addend: 0x0, symName: __Z17lodepng_info_initP11LodePNGInfo, symObjAddr: 0x2A00, symBinAddr: 0x100009520, symSize: 0xB0 }
  - { offsetInCU: 0xA128, offset: 0x1E50D, size: 0x8, addend: 0x0, symName: __ZL16LodePNGText_initP11LodePNGInfo, symObjAddr: 0x2AB0, symBinAddr: 0x1000095D0, symSize: 0x30 }
  - { offsetInCU: 0xA153, offset: 0x1E538, size: 0x8, addend: 0x0, symName: __ZL17LodePNGIText_initP11LodePNGInfo, symObjAddr: 0x2AE0, symBinAddr: 0x100009600, symSize: 0x50 }
  - { offsetInCU: 0xA17E, offset: 0x1E563, size: 0x8, addend: 0x0, symName: __ZL25LodePNGUnknownChunks_initP11LodePNGInfo, symObjAddr: 0x2B30, symBinAddr: 0x100009650, symSize: 0x70 }
  - { offsetInCU: 0xA1B7, offset: 0x1E59C, size: 0x8, addend: 0x0, symName: __Z20lodepng_info_cleanupP11LodePNGInfo, symObjAddr: 0x2BA0, symBinAddr: 0x1000096C0, symSize: 0x40 }
  - { offsetInCU: 0xA1E2, offset: 0x1E5C7, size: 0x8, addend: 0x0, symName: __ZL28LodePNGUnknownChunks_cleanupP11LodePNGInfo, symObjAddr: 0x2BE0, symBinAddr: 0x100009700, symSize: 0x50 }
  - { offsetInCU: 0xA21B, offset: 0x1E600, size: 0x8, addend: 0x0, symName: __Z17lodepng_info_copyP11LodePNGInfoPKS_, symObjAddr: 0x2C30, symBinAddr: 0x100009750, symSize: 0xF0 }
  - { offsetInCU: 0xA2CD, offset: 0x1E6B2, size: 0x8, addend: 0x0, symName: __ZL16LodePNGText_copyP11LodePNGInfoPKS_, symObjAddr: 0x2D20, symBinAddr: 0x100009840, symSize: 0xC0 }
  - { offsetInCU: 0xA337, offset: 0x1E71C, size: 0x8, addend: 0x0, symName: __ZL17LodePNGIText_copyP11LodePNGInfoPKS_, symObjAddr: 0x2DE0, symBinAddr: 0x100009900, symSize: 0x100 }
  - { offsetInCU: 0xA3A1, offset: 0x1E786, size: 0x8, addend: 0x0, symName: __ZL25LodePNGUnknownChunks_copyP11LodePNGInfoPKS_, symObjAddr: 0x2EE0, symBinAddr: 0x100009A00, symSize: 0x130 }
  - { offsetInCU: 0xA40A, offset: 0x1E7EF, size: 0x8, addend: 0x0, symName: __Z17lodepng_info_swapP11LodePNGInfoS0_, symObjAddr: 0x3010, symBinAddr: 0x100009B30, symSize: 0x60 }
  - { offsetInCU: 0xA453, offset: 0x1E838, size: 0x8, addend: 0x0, symName: __Z15lodepng_convertPhPKhPK16LodePNGColorModeS4_jj, symObjAddr: 0x3070, symBinAddr: 0x100009B90, symSize: 0x4E0 }
  - { offsetInCU: 0xA640, offset: 0x1EA25, size: 0x8, addend: 0x0, symName: __ZL24lodepng_color_mode_equalPK16LodePNGColorModeS1_, symObjAddr: 0x3550, symBinAddr: 0x10000A070, symSize: 0x180 }
  - { offsetInCU: 0xA68D, offset: 0x1EA72, size: 0x8, addend: 0x0, symName: __ZL15color_tree_initP9ColorTree, symObjAddr: 0x36D0, symBinAddr: 0x10000A1F0, symSize: 0x50 }
  - { offsetInCU: 0xA6C7, offset: 0x1EAAC, size: 0x8, addend: 0x0, symName: __ZL14color_tree_addP9ColorTreehhhhj, symObjAddr: 0x3720, symBinAddr: 0x10000A240, symSize: 0xF0 }
  - { offsetInCU: 0xA769, offset: 0x1EB4E, size: 0x8, addend: 0x0, symName: __ZL19getPixelColorRGBA16PtS_S_S_PKhmPK16LodePNGColorMode, symObjAddr: 0x3810, symBinAddr: 0x10000A330, symSize: 0x370 }
  - { offsetInCU: 0xA7EE, offset: 0x1EBD3, size: 0x8, addend: 0x0, symName: __ZL13rgba16ToPixelPhmPK16LodePNGColorModetttt, symObjAddr: 0x3B80, symBinAddr: 0x10000A6A0, symSize: 0x2E0 }
  - { offsetInCU: 0xA8AD, offset: 0x1EC92, size: 0x8, addend: 0x0, symName: __ZL19getPixelColorsRGBA8PhmjPKhPK16LodePNGColorMode, symObjAddr: 0x3E60, symBinAddr: 0x10000A980, symSize: 0x920 }
  - { offsetInCU: 0xA9AB, offset: 0x1ED90, size: 0x8, addend: 0x0, symName: __ZL18getPixelColorRGBA8PhS_S_S_PKhmPK16LodePNGColorMode, symObjAddr: 0x4780, symBinAddr: 0x10000B2A0, symSize: 0x5F0 }
  - { offsetInCU: 0xAAA8, offset: 0x1EE8D, size: 0x8, addend: 0x0, symName: __ZL12rgba8ToPixelPhmPK16LodePNGColorModeP9ColorTreehhhh, symObjAddr: 0x4D70, symBinAddr: 0x10000B890, symSize: 0x400 }
  - { offsetInCU: 0xAB97, offset: 0x1EF7C, size: 0x8, addend: 0x0, symName: __ZL18color_tree_cleanupP9ColorTree, symObjAddr: 0x5170, symBinAddr: 0x10000BC90, symSize: 0x70 }
  - { offsetInCU: 0xABD0, offset: 0x1EFB5, size: 0x8, addend: 0x0, symName: __Z26lodepng_color_profile_initP19LodePNGColorProfile, symObjAddr: 0x51E0, symBinAddr: 0x10000BD00, symSize: 0x70 }
  - { offsetInCU: 0xABFA, offset: 0x1EFDF, size: 0x8, addend: 0x0, symName: __Z25lodepng_get_color_profileP19LodePNGColorProfilePKhjjPK16LodePNGColorMode, symObjAddr: 0x5250, symBinAddr: 0x10000BD70, symSize: 0xC80 }
  - { offsetInCU: 0xAE85, offset: 0x1F26A, size: 0x8, addend: 0x0, symName: __ZL20getValueRequiredBitsh, symObjAddr: 0x5ED0, symBinAddr: 0x10000C9F0, symSize: 0x80 }
  - { offsetInCU: 0xAEB4, offset: 0x1F299, size: 0x8, addend: 0x0, symName: __ZL14color_tree_hasP9ColorTreehhhh, symObjAddr: 0x5F50, symBinAddr: 0x10000CA70, symSize: 0x50 }
  - { offsetInCU: 0xAF1E, offset: 0x1F303, size: 0x8, addend: 0x0, symName: __Z25lodepng_auto_choose_colorP16LodePNGColorModePKhjjPKS_, symObjAddr: 0x5FA0, symBinAddr: 0x10000CAC0, symSize: 0x4B0 }
  - { offsetInCU: 0xB039, offset: 0x1F41E, size: 0x8, addend: 0x0, symName: __Z15lodepng_inspectPjS_P12LodePNGStatePKhm, symObjAddr: 0x6450, symBinAddr: 0x10000CF70, symSize: 0x350 }
  - { offsetInCU: 0xB0DF, offset: 0x1F4C4, size: 0x8, addend: 0x0, symName: __ZL18checkColorValidity16LodePNGColorTypej, symObjAddr: 0x67A0, symBinAddr: 0x10000D2C0, symSize: 0x150 }
  - { offsetInCU: 0xB11C, offset: 0x1F501, size: 0x8, addend: 0x0, symName: __Z14lodepng_decodePPhPjS1_P12LodePNGStatePKhm, symObjAddr: 0x68F0, symBinAddr: 0x10000D410, symSize: 0x210 }
  - { offsetInCU: 0xB1C3, offset: 0x1F5A8, size: 0x8, addend: 0x0, symName: __ZL13decodeGenericPPhPjS1_P12LodePNGStatePKhm, symObjAddr: 0x6B00, symBinAddr: 0x10000D620, symSize: 0xB20 }
  - { offsetInCU: 0xB340, offset: 0x1F725, size: 0x8, addend: 0x0, symName: __Z21lodepng_decode_memoryPPhPjS1_PKhm16LodePNGColorTypej, symObjAddr: 0x7620, symBinAddr: 0x10000E140, symSize: 0xF0 }
  - { offsetInCU: 0xB7CE, offset: 0x1FBB3, size: 0x8, addend: 0x0, symName: __ZN12LodePNGStateC1Ev, symObjAddr: 0x7710, symBinAddr: 0x10000E230, symSize: 0x20 }
  - { offsetInCU: 0xB7F9, offset: 0x1FBDE, size: 0x8, addend: 0x0, symName: __Z18lodepng_state_initP12LodePNGState, symObjAddr: 0x7730, symBinAddr: 0x10000E250, symSize: 0x60 }
  - { offsetInCU: 0xB823, offset: 0x1FC08, size: 0x8, addend: 0x0, symName: __Z21lodepng_state_cleanupP12LodePNGState, symObjAddr: 0x7790, symBinAddr: 0x10000E2B0, symSize: 0x40 }
  - { offsetInCU: 0xB84E, offset: 0x1FC33, size: 0x8, addend: 0x0, symName: __ZN12LodePNGStateD1Ev, symObjAddr: 0x77D0, symBinAddr: 0x10000E2F0, symSize: 0x20 }
  - { offsetInCU: 0xB876, offset: 0x1FC5B, size: 0x8, addend: 0x0, symName: __Z16lodepng_decode32PPhPjS1_PKhm, symObjAddr: 0x77F0, symBinAddr: 0x10000E310, symSize: 0x50 }
  - { offsetInCU: 0xB8E0, offset: 0x1FCC5, size: 0x8, addend: 0x0, symName: __Z16lodepng_decode24PPhPjS1_PKhm, symObjAddr: 0x7840, symBinAddr: 0x10000E360, symSize: 0x50 }
  - { offsetInCU: 0xB94A, offset: 0x1FD2F, size: 0x8, addend: 0x0, symName: __Z19lodepng_decode_filePPhPjS1_PKc16LodePNGColorTypej, symObjAddr: 0x7890, symBinAddr: 0x10000E3B0, symSize: 0x80 }
  - { offsetInCU: 0xB9F0, offset: 0x1FDD5, size: 0x8, addend: 0x0, symName: __Z21lodepng_decode32_filePPhPjS1_PKc, symObjAddr: 0x7910, symBinAddr: 0x10000E430, symSize: 0x40 }
  - { offsetInCU: 0xBA4B, offset: 0x1FE30, size: 0x8, addend: 0x0, symName: __Z21lodepng_decode24_filePPhPjS1_PKc, symObjAddr: 0x7950, symBinAddr: 0x10000E470, symSize: 0x40 }
  - { offsetInCU: 0xBAA6, offset: 0x1FE8B, size: 0x8, addend: 0x0, symName: __Z29lodepng_decoder_settings_initP22LodePNGDecoderSettings, symObjAddr: 0x7990, symBinAddr: 0x10000E4B0, symSize: 0x60 }
  - { offsetInCU: 0xBAD0, offset: 0x1FEB5, size: 0x8, addend: 0x0, symName: __Z29lodepng_encoder_settings_initP22LodePNGEncoderSettings, symObjAddr: 0x79F0, symBinAddr: 0x10000E510, symSize: 0x70 }
  - { offsetInCU: 0xBAFA, offset: 0x1FEDF, size: 0x8, addend: 0x0, symName: __Z18lodepng_state_copyP12LodePNGStatePKS_, symObjAddr: 0x7A60, symBinAddr: 0x10000E580, symSize: 0xD0 }
  - { offsetInCU: 0xBB43, offset: 0x1FF28, size: 0x8, addend: 0x0, symName: __ZN12LodePNGStateaSERKS_, symObjAddr: 0x7B30, symBinAddr: 0x10000E650, symSize: 0x40 }
  - { offsetInCU: 0xBB73, offset: 0x1FF58, size: 0x8, addend: 0x0, symName: __Z14lodepng_encodePPhPmPKhjjP12LodePNGState, symObjAddr: 0x7B70, symBinAddr: 0x10000E690, symSize: 0x980 }
  - { offsetInCU: 0xBC97, offset: 0x2007C, size: 0x8, addend: 0x0, symName: __ZL19preProcessScanlinesPPhPmPKhjjPK11LodePNGInfoPK22LodePNGEncoderSettings, symObjAddr: 0x84F0, symBinAddr: 0x10000F010, symSize: 0x540 }
  - { offsetInCU: 0xBE0D, offset: 0x201F2, size: 0x8, addend: 0x0, symName: __ZL13ucvector_initP8ucvector, symObjAddr: 0x8A30, symBinAddr: 0x10000F550, symSize: 0x30 }
  - { offsetInCU: 0xBE35, offset: 0x2021A, size: 0x8, addend: 0x0, symName: __ZL14writeSignatureP8ucvector, symObjAddr: 0x8A60, symBinAddr: 0x10000F580, symSize: 0x90 }
  - { offsetInCU: 0xBE60, offset: 0x20245, size: 0x8, addend: 0x0, symName: __ZL13addChunk_IHDRP8ucvectorjj16LodePNGColorTypejj, symObjAddr: 0x8AF0, symBinAddr: 0x10000F610, symSize: 0xC0 }
  - { offsetInCU: 0xBEF8, offset: 0x202DD, size: 0x8, addend: 0x0, symName: __ZL16addUnknownChunksP8ucvectorPhm, symObjAddr: 0x8BB0, symBinAddr: 0x10000F6D0, symSize: 0x90 }
  - { offsetInCU: 0xBF71, offset: 0x20356, size: 0x8, addend: 0x0, symName: __ZL13addChunk_PLTEP8ucvectorPK16LodePNGColorMode, symObjAddr: 0x8C40, symBinAddr: 0x10000F760, symSize: 0xB0 }
  - { offsetInCU: 0xBFDC, offset: 0x203C1, size: 0x8, addend: 0x0, symName: __ZL22getPaletteTranslucencyPKhm, symObjAddr: 0x8CF0, symBinAddr: 0x10000F810, symSize: 0x170 }
  - { offsetInCU: 0xC065, offset: 0x2044A, size: 0x8, addend: 0x0, symName: __ZL13addChunk_tRNSP8ucvectorPK16LodePNGColorMode, symObjAddr: 0x8E60, symBinAddr: 0x10000F980, symSize: 0x220 }
  - { offsetInCU: 0xC0ED, offset: 0x204D2, size: 0x8, addend: 0x0, symName: __ZL13addChunk_bKGDP8ucvectorPK11LodePNGInfo, symObjAddr: 0x9080, symBinAddr: 0x10000FBA0, symSize: 0x180 }
  - { offsetInCU: 0xC149, offset: 0x2052E, size: 0x8, addend: 0x0, symName: __ZL13addChunk_pHYsP8ucvectorPK11LodePNGInfo, symObjAddr: 0x9200, symBinAddr: 0x10000FD20, symSize: 0x90 }
  - { offsetInCU: 0xC1A5, offset: 0x2058A, size: 0x8, addend: 0x0, symName: __ZL13addChunk_IDATP8ucvectorPKhmP23LodePNGCompressSettings, symObjAddr: 0x9290, symBinAddr: 0x10000FDB0, symSize: 0x80 }
  - { offsetInCU: 0xC21F, offset: 0x20604, size: 0x8, addend: 0x0, symName: __ZL13addChunk_tIMEP8ucvectorPK11LodePNGTime, symObjAddr: 0x9310, symBinAddr: 0x10000FE30, symSize: 0xF0 }
  - { offsetInCU: 0xC27B, offset: 0x20660, size: 0x8, addend: 0x0, symName: __ZL13addChunk_zTXtP8ucvectorPKcS2_P23LodePNGCompressSettings, symObjAddr: 0x9400, symBinAddr: 0x10000FF20, symSize: 0x160 }
  - { offsetInCU: 0xC326, offset: 0x2070B, size: 0x8, addend: 0x0, symName: __ZL13addChunk_tEXtP8ucvectorPKcS2_, symObjAddr: 0x9560, symBinAddr: 0x100010080, symSize: 0x110 }
  - { offsetInCU: 0xC3A1, offset: 0x20786, size: 0x8, addend: 0x0, symName: __ZL13addChunk_iTXtP8ucvectorjPKcS2_S2_S2_P23LodePNGCompressSettings, symObjAddr: 0x9670, symBinAddr: 0x100010190, symSize: 0x290 }
  - { offsetInCU: 0xC487, offset: 0x2086C, size: 0x8, addend: 0x0, symName: __ZL13addChunk_IENDP8ucvector, symObjAddr: 0x9900, symBinAddr: 0x100010420, symSize: 0x40 }
  - { offsetInCU: 0xC4C4, offset: 0x208A9, size: 0x8, addend: 0x0, symName: __Z21lodepng_encode_memoryPPhPmPKhjj16LodePNGColorTypej, symObjAddr: 0x9940, symBinAddr: 0x100010460, symSize: 0x100 }
  - { offsetInCU: 0xC56B, offset: 0x20950, size: 0x8, addend: 0x0, symName: __Z16lodepng_encode32PPhPmPKhjj, symObjAddr: 0x9A40, symBinAddr: 0x100010560, symSize: 0x50 }
  - { offsetInCU: 0xC5D5, offset: 0x209BA, size: 0x8, addend: 0x0, symName: __Z16lodepng_encode24PPhPmPKhjj, symObjAddr: 0x9A90, symBinAddr: 0x1000105B0, symSize: 0x50 }
  - { offsetInCU: 0xC63F, offset: 0x20A24, size: 0x8, addend: 0x0, symName: __Z19lodepng_encode_filePKcPKhjj16LodePNGColorTypej, symObjAddr: 0x9AE0, symBinAddr: 0x100010600, symSize: 0x80 }
  - { offsetInCU: 0xC6E5, offset: 0x20ACA, size: 0x8, addend: 0x0, symName: __Z21lodepng_encode32_filePKcPKhjj, symObjAddr: 0x9B60, symBinAddr: 0x100010680, symSize: 0x40 }
  - { offsetInCU: 0xC740, offset: 0x20B25, size: 0x8, addend: 0x0, symName: __Z21lodepng_encode24_filePKcPKhjj, symObjAddr: 0x9BA0, symBinAddr: 0x1000106C0, symSize: 0x40 }
  - { offsetInCU: 0xC79B, offset: 0x20B80, size: 0x8, addend: 0x0, symName: __Z18lodepng_error_textj, symObjAddr: 0x9BE0, symBinAddr: 0x100010700, symSize: 0x6E0 }
  - { offsetInCU: 0xC7CE, offset: 0x20BB3, size: 0x8, addend: 0x0, symName: __ZN7lodepng9load_fileERNSt3__16vectorIhNS0_9allocatorIhEEEERKNS0_12basic_stringIcNS0_11char_traitsIcEENS2_IcEEEE, symObjAddr: 0xA2C0, symBinAddr: 0x100010DE0, symSize: 0xB0 }
  - { offsetInCU: 0xC81A, offset: 0x20BFF, size: 0x8, addend: 0x0, symName: __ZN7lodepng9save_fileERKNSt3__16vectorIhNS0_9allocatorIhEEEERKNS0_12basic_stringIcNS0_11char_traitsIcEENS2_IcEEEE, symObjAddr: 0xA420, symBinAddr: 0x100010F40, symSize: 0x80 }
  - { offsetInCU: 0xC857, offset: 0x20C3C, size: 0x8, addend: 0x0, symName: __ZN7lodepng10decompressERNSt3__16vectorIhNS0_9allocatorIhEEEEPKhmRK25LodePNGDecompressSettings, symObjAddr: 0xA500, symBinAddr: 0x100011020, symSize: 0xB0 }
  - { offsetInCU: 0xC8DF, offset: 0x20CC4, size: 0x8, addend: 0x0, symName: __ZN7lodepng10decompressERNSt3__16vectorIhNS0_9allocatorIhEEEERKS4_RK25LodePNGDecompressSettings, symObjAddr: 0xA910, symBinAddr: 0x100011430, symSize: 0x80 }
  - { offsetInCU: 0xC92B, offset: 0x20D10, size: 0x8, addend: 0x0, symName: __ZN7lodepng8compressERNSt3__16vectorIhNS0_9allocatorIhEEEEPKhmRK23LodePNGCompressSettings, symObjAddr: 0xA990, symBinAddr: 0x1000114B0, symSize: 0xB0 }
  - { offsetInCU: 0xC9B3, offset: 0x20D98, size: 0x8, addend: 0x0, symName: __ZN7lodepng8compressERNSt3__16vectorIhNS0_9allocatorIhEEEERKS4_RK23LodePNGCompressSettings, symObjAddr: 0xAAC0, symBinAddr: 0x1000115E0, symSize: 0x80 }
  - { offsetInCU: 0xCA6E, offset: 0x20E53, size: 0x8, addend: 0x0, symName: __ZN7lodepng6decodeERNSt3__16vectorIhNS0_9allocatorIhEEEERjS6_PKhm16LodePNGColorTypej, symObjAddr: 0xAD60, symBinAddr: 0x100011870, symSize: 0x180 }
  - { offsetInCU: 0xCB3B, offset: 0x20F20, size: 0x8, addend: 0x0, symName: __ZN7lodepng6decodeERNSt3__16vectorIhNS0_9allocatorIhEEEERjS6_RKS4_16LodePNGColorTypej, symObjAddr: 0xAEE0, symBinAddr: 0x1000119F0, symSize: 0xB0 }
  - { offsetInCU: 0xCBB4, offset: 0x20F99, size: 0x8, addend: 0x0, symName: __ZN7lodepng6decodeERNSt3__16vectorIhNS0_9allocatorIhEEEERjS6_RNS_5StateEPKhm, symObjAddr: 0xAF90, symBinAddr: 0x100011AA0, symSize: 0xE0 }
  - { offsetInCU: 0xCC69, offset: 0x2104E, size: 0x8, addend: 0x0, symName: __ZN7lodepng6decodeERNSt3__16vectorIhNS0_9allocatorIhEEEERjS6_RNS_5StateERKS4_, symObjAddr: 0xB070, symBinAddr: 0x100011B80, symSize: 0xB0 }
  - { offsetInCU: 0xCCD3, offset: 0x210B8, size: 0x8, addend: 0x0, symName: __ZN7lodepng6decodeERNSt3__16vectorIhNS0_9allocatorIhEEEERjS6_RKNS0_12basic_stringIcNS0_11char_traitsIcEENS2_IcEEEE16LodePNGColorTypej, symObjAddr: 0xB120, symBinAddr: 0x100011C30, symSize: 0xE0 }
  - { offsetInCU: 0xCD6C, offset: 0x21151, size: 0x8, addend: 0x0, symName: __ZN7lodepng6encodeERNSt3__16vectorIhNS0_9allocatorIhEEEEPKhjj16LodePNGColorTypej, symObjAddr: 0xB240, symBinAddr: 0x100011D50, symSize: 0xB0 }
  - { offsetInCU: 0xCE12, offset: 0x211F7, size: 0x8, addend: 0x0, symName: __ZN7lodepng6encodeERNSt3__16vectorIhNS0_9allocatorIhEEEERKS4_jj16LodePNGColorTypej, symObjAddr: 0xB2F0, symBinAddr: 0x100011E00, symSize: 0xC0 }
  - { offsetInCU: 0xCE8B, offset: 0x21270, size: 0x8, addend: 0x0, symName: __ZN7lodepng6encodeERNSt3__16vectorIhNS0_9allocatorIhEEEEPKhjjRNS_5StateE, symObjAddr: 0xB3B0, symBinAddr: 0x100011EC0, symSize: 0xA0 }
  - { offsetInCU: 0xCF22, offset: 0x21307, size: 0x8, addend: 0x0, symName: __ZN7lodepng6encodeERNSt3__16vectorIhNS0_9allocatorIhEEEERKS4_jjRNS_5StateE, symObjAddr: 0xB450, symBinAddr: 0x100011F60, symSize: 0xC0 }
  - { offsetInCU: 0xCF8C, offset: 0x21371, size: 0x8, addend: 0x0, symName: __ZN7lodepng6encodeERKNSt3__112basic_stringIcNS0_11char_traitsIcEENS0_9allocatorIcEEEEPKhjj16LodePNGColorTypej, symObjAddr: 0xB510, symBinAddr: 0x100012020, symSize: 0xC0 }
  - { offsetInCU: 0xD023, offset: 0x21408, size: 0x8, addend: 0x0, symName: __ZN7lodepng6encodeERKNSt3__112basic_stringIcNS0_11char_traitsIcEENS0_9allocatorIcEEEERKNS0_6vectorIhNS4_IhEEEEjj16LodePNGColorTypej, symObjAddr: 0xB5D0, symBinAddr: 0x1000120E0, symSize: 0xC0 }
  - { offsetInCU: 0xD09E, offset: 0x21483, size: 0x8, addend: 0x0, symName: __ZNKSt3__112basic_stringIcNS_11char_traitsIcEENS_9allocatorIcEEE5c_strB7v160006Ev, symObjAddr: 0xA370, symBinAddr: 0x100010E90, symSize: 0x20 }
  - { offsetInCU: 0xD0C1, offset: 0x214A6, size: 0x8, addend: 0x0, symName: __ZNSt3__16vectorIhNS_9allocatorIhEEE6resizeEm, symObjAddr: 0xA390, symBinAddr: 0x100010EB0, symSize: 0x70 }
  - { offsetInCU: 0xD106, offset: 0x214EB, size: 0x8, addend: 0x0, symName: __ZNSt3__16vectorIhNS_9allocatorIhEEEixB7v160006Em, symObjAddr: 0xA400, symBinAddr: 0x100010F20, symSize: 0x20 }
  - { offsetInCU: 0xD13D, offset: 0x21522, size: 0x8, addend: 0x0, symName: __ZNKSt3__16vectorIhNS_9allocatorIhEEE5emptyB7v160006Ev, symObjAddr: 0xA4A0, symBinAddr: 0x100010FC0, symSize: 0x20 }
  - { offsetInCU: 0xD160, offset: 0x21545, size: 0x8, addend: 0x0, symName: __ZNKSt3__16vectorIhNS_9allocatorIhEEEixB7v160006Em, symObjAddr: 0xA4C0, symBinAddr: 0x100010FE0, symSize: 0x20 }
  - { offsetInCU: 0xD197, offset: 0x2157C, size: 0x8, addend: 0x0, symName: __ZNKSt3__16vectorIhNS_9allocatorIhEEE4sizeB7v160006Ev, symObjAddr: 0xA4E0, symBinAddr: 0x100011000, symSize: 0x20 }
  - { offsetInCU: 0xD1BB, offset: 0x215A0, size: 0x8, addend: 0x0, symName: __ZL15zlib_decompressPPhPmPKhmPK25LodePNGDecompressSettings, symObjAddr: 0xA5B0, symBinAddr: 0x1000110D0, symSize: 0x80 }
  - { offsetInCU: 0xD225, offset: 0x2160A, size: 0x8, addend: 0x0, symName: __ZNSt3__16vectorIhNS_9allocatorIhEEE6insertIPhLi0EEENS_11__wrap_iterIS5_EENS6_IPKhEET_SB_, symObjAddr: 0xA630, symBinAddr: 0x100011150, symSize: 0x280 }
  - { offsetInCU: 0xD339, offset: 0x2171E, size: 0x8, addend: 0x0, symName: __ZNSt3__16vectorIhNS_9allocatorIhEEE3endB7v160006Ev, symObjAddr: 0xA8B0, symBinAddr: 0x1000113D0, symSize: 0x30 }
  - { offsetInCU: 0xD36B, offset: 0x21750, size: 0x8, addend: 0x0, symName: __ZNSt3__111__wrap_iterIPKhEC1B7v160006IPhEERKNS0_IT_EEPNS_9enable_ifIXsr14is_convertibleIS6_S2_EE5valueEvE4typeE, symObjAddr: 0xA8E0, symBinAddr: 0x100011400, symSize: 0x30 }
  - { offsetInCU: 0xD3B5, offset: 0x2179A, size: 0x8, addend: 0x0, symName: __ZL13zlib_compressPPhPmPKhmPK23LodePNGCompressSettings, symObjAddr: 0xAA40, symBinAddr: 0x100011560, symSize: 0x80 }
  - { offsetInCU: 0xD440, offset: 0x21825, size: 0x8, addend: 0x0, symName: __ZN7lodepng5StateC2Ev, symObjAddr: 0xAB40, symBinAddr: 0x100011660, symSize: 0x60 }
  - { offsetInCU: 0xD46C, offset: 0x21851, size: 0x8, addend: 0x0, symName: __ZN12LodePNGStateC2Ev, symObjAddr: 0xABA0, symBinAddr: 0x1000116C0, symSize: 0x20 }
  - { offsetInCU: 0xD498, offset: 0x2187D, size: 0x8, addend: 0x0, symName: __ZN12LodePNGStateD2Ev, symObjAddr: 0xABC0, symBinAddr: 0x1000116E0, symSize: 0x10 }
  - { offsetInCU: 0xD4C1, offset: 0x218A6, size: 0x8, addend: 0x0, symName: __ZN7lodepng5StateC1Ev, symObjAddr: 0xABD0, symBinAddr: 0x1000116F0, symSize: 0x20 }
  - { offsetInCU: 0xD4ED, offset: 0x218D2, size: 0x8, addend: 0x0, symName: __ZN7lodepng5StateC2ERKS0_, symObjAddr: 0xABF0, symBinAddr: 0x100011710, symSize: 0x70 }
  - { offsetInCU: 0xD528, offset: 0x2190D, size: 0x8, addend: 0x0, symName: __ZN7lodepng5StateC1ERKS0_, symObjAddr: 0xAC60, symBinAddr: 0x100011780, symSize: 0x30 }
  - { offsetInCU: 0xD563, offset: 0x21948, size: 0x8, addend: 0x0, symName: __ZN7lodepng5StateD2Ev, symObjAddr: 0xAC90, symBinAddr: 0x1000117B0, symSize: 0x40 }
  - { offsetInCU: 0xD58F, offset: 0x21974, size: 0x8, addend: 0x0, symName: __ZN7lodepng5StateD1Ev, symObjAddr: 0xACE0, symBinAddr: 0x1000117F0, symSize: 0x20 }
  - { offsetInCU: 0xD5BB, offset: 0x219A0, size: 0x8, addend: 0x0, symName: __ZN7lodepng5StateD0Ev, symObjAddr: 0xAD00, symBinAddr: 0x100011810, symSize: 0x30 }
  - { offsetInCU: 0xD5E7, offset: 0x219CC, size: 0x8, addend: 0x0, symName: __ZN7lodepng5StateaSERKS0_, symObjAddr: 0xAD30, symBinAddr: 0x100011840, symSize: 0x30 }
  - { offsetInCU: 0xD61E, offset: 0x21A03, size: 0x8, addend: 0x0, symName: __ZNSt3__16vectorIhNS_9allocatorIhEEEC1B7v160006Ev, symObjAddr: 0xB200, symBinAddr: 0x100011D10, symSize: 0x20 }
  - { offsetInCU: 0xD647, offset: 0x21A2C, size: 0x8, addend: 0x0, symName: __ZNSt3__16vectorIhNS_9allocatorIhEEED1B7v160006Ev, symObjAddr: 0xB220, symBinAddr: 0x100011D30, symSize: 0x20 }
  - { offsetInCU: 0xD670, offset: 0x21A55, size: 0x8, addend: 0x0, symName: __ZL17readBitFromStreamPmPKh, symObjAddr: 0xB690, symBinAddr: 0x1000121A0, symSize: 0x50 }
  - { offsetInCU: 0xD6BD, offset: 0x21AA2, size: 0x8, addend: 0x0, symName: __ZL20inflateNoCompressionP8ucvectorPKhPmS3_m, symObjAddr: 0xB6E0, symBinAddr: 0x1000121F0, symSize: 0x1B0 }
  - { offsetInCU: 0xD775, offset: 0x21B5A, size: 0x8, addend: 0x0, symName: __ZL19inflateHuffmanBlockP8ucvectorPKhPmS3_mj, symObjAddr: 0xB890, symBinAddr: 0x1000123A0, symSize: 0x430 }
  - { offsetInCU: 0xD8DA, offset: 0x21CBF, size: 0x8, addend: 0x0, symName: __ZL15ucvector_resizeP8ucvectorm, symObjAddr: 0xBCC0, symBinAddr: 0x1000127D0, symSize: 0x60 }
  - { offsetInCU: 0xD914, offset: 0x21CF9, size: 0x8, addend: 0x0, symName: __ZL16ucvector_reserveP8ucvectorm, symObjAddr: 0xBD20, symBinAddr: 0x100012830, symSize: 0xC0 }
  - { offsetInCU: 0xD978, offset: 0x21D5D, size: 0x8, addend: 0x0, symName: __ZL16HuffmanTree_initP11HuffmanTree, symObjAddr: 0xBDE0, symBinAddr: 0x1000128F0, symSize: 0x30 }
  - { offsetInCU: 0xD9A3, offset: 0x21D88, size: 0x8, addend: 0x0, symName: __ZL19getTreeInflateFixedP11HuffmanTreeS0_, symObjAddr: 0xBE10, symBinAddr: 0x100012920, symSize: 0x30 }
  - { offsetInCU: 0xD9DD, offset: 0x21DC2, size: 0x8, addend: 0x0, symName: __ZL21getTreeInflateDynamicP11HuffmanTreeS0_PKhPmm, symObjAddr: 0xBE40, symBinAddr: 0x100012950, symSize: 0x6E0 }
  - { offsetInCU: 0xDB7C, offset: 0x21F61, size: 0x8, addend: 0x0, symName: __ZL19huffmanDecodeSymbolPKhPmPK11HuffmanTreem, symObjAddr: 0xC520, symBinAddr: 0x100013030, symSize: 0xE0 }
  - { offsetInCU: 0xDBF6, offset: 0x21FDB, size: 0x8, addend: 0x0, symName: __ZL18readBitsFromStreamPmPKhm, symObjAddr: 0xC600, symBinAddr: 0x100013110, symSize: 0x80 }
  - { offsetInCU: 0xDC61, offset: 0x22046, size: 0x8, addend: 0x0, symName: __ZL19HuffmanTree_cleanupP11HuffmanTree, symObjAddr: 0xC680, symBinAddr: 0x100013190, symSize: 0x40 }
  - { offsetInCU: 0xDC8C, offset: 0x22071, size: 0x8, addend: 0x0, symName: __ZL23generateFixedLitLenTreeP11HuffmanTree, symObjAddr: 0xC6C0, symBinAddr: 0x1000131D0, symSize: 0x130 }
  - { offsetInCU: 0xDCE8, offset: 0x220CD, size: 0x8, addend: 0x0, symName: __ZL25generateFixedDistanceTreeP11HuffmanTree, symObjAddr: 0xC7F0, symBinAddr: 0x100013300, symSize: 0xA0 }
  - { offsetInCU: 0xDD44, offset: 0x22129, size: 0x8, addend: 0x0, symName: __ZL27HuffmanTree_makeFromLengthsP11HuffmanTreePKjmj, symObjAddr: 0xC890, symBinAddr: 0x1000133A0, symSize: 0xB0 }
  - { offsetInCU: 0xDDAF, offset: 0x22194, size: 0x8, addend: 0x0, symName: __ZL28HuffmanTree_makeFromLengths2P11HuffmanTree, symObjAddr: 0xC940, symBinAddr: 0x100013450, symSize: 0x1F0 }
  - { offsetInCU: 0xDE2C, offset: 0x22211, size: 0x8, addend: 0x0, symName: __ZL13uivector_initP8uivector, symObjAddr: 0xCB30, symBinAddr: 0x100013640, symSize: 0x30 }
  - { offsetInCU: 0xDE54, offset: 0x22239, size: 0x8, addend: 0x0, symName: __ZL16uivector_resizevP8uivectormj, symObjAddr: 0xCB60, symBinAddr: 0x100013670, symSize: 0x90 }
  - { offsetInCU: 0xDEB8, offset: 0x2229D, size: 0x8, addend: 0x0, symName: __ZL16uivector_cleanupPv, symObjAddr: 0xCBF0, symBinAddr: 0x100013700, symSize: 0x50 }
  - { offsetInCU: 0xDEE0, offset: 0x222C5, size: 0x8, addend: 0x0, symName: __ZL22HuffmanTree_make2DTreeP11HuffmanTree, symObjAddr: 0xCC40, symBinAddr: 0x100013750, symSize: 0x270 }
  - { offsetInCU: 0xDF68, offset: 0x2234D, size: 0x8, addend: 0x0, symName: __ZL15uivector_resizeP8uivectorm, symObjAddr: 0xCEB0, symBinAddr: 0x1000139C0, symSize: 0x60 }
  - { offsetInCU: 0xDFA2, offset: 0x22387, size: 0x8, addend: 0x0, symName: __ZL16uivector_reserveP8uivectorm, symObjAddr: 0xCF10, symBinAddr: 0x100013A20, symSize: 0xC0 }
  - { offsetInCU: 0xE006, offset: 0x223EB, size: 0x8, addend: 0x0, symName: __ZL20deflateNoCompressionP8ucvectorPKhm, symObjAddr: 0xCFD0, symBinAddr: 0x100013AE0, symSize: 0x1A0 }
  - { offsetInCU: 0xE0EA, offset: 0x224CF, size: 0x8, addend: 0x0, symName: __ZL9hash_initP4Hashj, symObjAddr: 0xD170, symBinAddr: 0x100013C80, symSize: 0x220 }
  - { offsetInCU: 0xE137, offset: 0x2251C, size: 0x8, addend: 0x0, symName: __ZL12deflateFixedP8ucvectorPmP4HashPKhmmPK23LodePNGCompressSettingsj, symObjAddr: 0xD390, symBinAddr: 0x100013EA0, symSize: 0x320 }
  - { offsetInCU: 0xE23D, offset: 0x22622, size: 0x8, addend: 0x0, symName: __ZL14deflateDynamicP8ucvectorPmP4HashPKhmmPK23LodePNGCompressSettingsj, symObjAddr: 0xD6B0, symBinAddr: 0x1000141C0, symSize: 0xE10 }
  - { offsetInCU: 0xE49C, offset: 0x22881, size: 0x8, addend: 0x0, symName: __ZL12hash_cleanupP4Hash, symObjAddr: 0xE4C0, symBinAddr: 0x100014FD0, symSize: 0x60 }
  - { offsetInCU: 0xE4C7, offset: 0x228AC, size: 0x8, addend: 0x0, symName: __ZL10encodeLZ77P8uivectorP4HashPKhmmjjjj, symObjAddr: 0xE520, symBinAddr: 0x100015030, symSize: 0x800 }
  - { offsetInCU: 0xE6F9, offset: 0x22ADE, size: 0x8, addend: 0x0, symName: __ZL13writeLZ77dataPmP8ucvectorPK8uivectorPK11HuffmanTreeS7_, symObjAddr: 0xED20, symBinAddr: 0x100015830, symSize: 0x1B0 }
  - { offsetInCU: 0xE807, offset: 0x22BEC, size: 0x8, addend: 0x0, symName: __ZL16addHuffmanSymbolPmP8ucvectorjj, symObjAddr: 0xEED0, symBinAddr: 0x1000159E0, symSize: 0x40 }
  - { offsetInCU: 0xE85F, offset: 0x22C44, size: 0x8, addend: 0x0, symName: __ZL19HuffmanTree_getCodePK11HuffmanTreej, symObjAddr: 0xEF10, symBinAddr: 0x100015A20, symSize: 0x20 }
  - { offsetInCU: 0xE89D, offset: 0x22C82, size: 0x8, addend: 0x0, symName: __ZL21HuffmanTree_getLengthPK11HuffmanTreej, symObjAddr: 0xEF30, symBinAddr: 0x100015A40, symSize: 0x20 }
  - { offsetInCU: 0xE8DB, offset: 0x22CC0, size: 0x8, addend: 0x0, symName: __ZL7getHashPKhmm, symObjAddr: 0xEF50, symBinAddr: 0x100015A60, symSize: 0x100 }
  - { offsetInCU: 0xE963, offset: 0x22D48, size: 0x8, addend: 0x0, symName: __ZL10countZerosPKhmm, symObjAddr: 0xF050, symBinAddr: 0x100015B60, symSize: 0xB0 }
  - { offsetInCU: 0xE9CE, offset: 0x22DB3, size: 0x8, addend: 0x0, symName: __ZL15updateHashChainP4Hashmjt, symObjAddr: 0xF100, symBinAddr: 0x100015C10, symSize: 0xE0 }
  - { offsetInCU: 0xEA26, offset: 0x22E0B, size: 0x8, addend: 0x0, symName: __ZL18uivector_push_backP8uivectorj, symObjAddr: 0xF1E0, symBinAddr: 0x100015CF0, symSize: 0x70 }
  - { offsetInCU: 0xEA60, offset: 0x22E45, size: 0x8, addend: 0x0, symName: __ZL17addLengthDistanceP8uivectormm, symObjAddr: 0xF250, symBinAddr: 0x100015D60, symSize: 0xC0 }
  - { offsetInCU: 0xEAE5, offset: 0x22ECA, size: 0x8, addend: 0x0, symName: __ZL15searchCodeIndexPKjmm, symObjAddr: 0xF310, symBinAddr: 0x100015E20, symSize: 0xB0 }
  - { offsetInCU: 0xEB6D, offset: 0x22F52, size: 0x8, addend: 0x0, symName: __ZL15addBitsToStreamPmP8ucvectorjm, symObjAddr: 0xF3C0, symBinAddr: 0x100015ED0, symSize: 0xB0 }
  - { offsetInCU: 0xEBD4, offset: 0x22FB9, size: 0x8, addend: 0x0, symName: __ZL23addBitsToStreamReversedPmP8ucvectorjm, symObjAddr: 0xF470, symBinAddr: 0x100015F80, symSize: 0xC0 }
  - { offsetInCU: 0xEC3B, offset: 0x23020, size: 0x8, addend: 0x0, symName: __ZL31HuffmanTree_makeFromFrequenciesP11HuffmanTreePKjmmj, symObjAddr: 0xF530, symBinAddr: 0x100016040, symSize: 0x120 }
  - { offsetInCU: 0xECB5, offset: 0x2309A, size: 0x8, addend: 0x0, symName: __ZL14update_adler32jPKhj, symObjAddr: 0xF650, symBinAddr: 0x100016160, symSize: 0xD0 }
  - { offsetInCU: 0xED3D, offset: 0x23122, size: 0x8, addend: 0x0, symName: __ZL14string_cleanupPPc, symObjAddr: 0xF720, symBinAddr: 0x100016230, symSize: 0x30 }
  - { offsetInCU: 0xED68, offset: 0x2314D, size: 0x8, addend: 0x0, symName: __ZL13string_resizePPcm, symObjAddr: 0xF750, symBinAddr: 0x100016260, symSize: 0x60 }
  - { offsetInCU: 0xEDB5, offset: 0x2319A, size: 0x8, addend: 0x0, symName: __ZL26readBitsFromReversedStreamPmPKhm, symObjAddr: 0xF7B0, symBinAddr: 0x1000162C0, symSize: 0x70 }
  - { offsetInCU: 0xEE20, offset: 0x23205, size: 0x8, addend: 0x0, symName: __ZL25readBitFromReversedStreamPmPKh, symObjAddr: 0xF820, symBinAddr: 0x100016330, symSize: 0x50 }
  - { offsetInCU: 0xEE6D, offset: 0x23252, size: 0x8, addend: 0x0, symName: __ZL12addColorBitsPhmjj, symObjAddr: 0xF870, symBinAddr: 0x100016380, symSize: 0xD0 }
  - { offsetInCU: 0xEEE3, offset: 0x232C8, size: 0x8, addend: 0x0, symName: __ZL14color_tree_getP9ColorTreehhhh, symObjAddr: 0xF940, symBinAddr: 0x100016450, symSize: 0x100 }
  - { offsetInCU: 0xEF7A, offset: 0x2335F, size: 0x8, addend: 0x0, symName: __ZL22lodepng_pixel_overflowjjPK16LodePNGColorModeS1_, symObjAddr: 0xFA40, symBinAddr: 0x100016550, symSize: 0x170 }
  - { offsetInCU: 0xF012, offset: 0x233F7, size: 0x8, addend: 0x0, symName: __ZL14lodepng_addoflmmPm, symObjAddr: 0xFBB0, symBinAddr: 0x1000166C0, symSize: 0x40 }
  - { offsetInCU: 0xF05F, offset: 0x23444, size: 0x8, addend: 0x0, symName: __ZL14readChunk_PLTEP16LodePNGColorModePKhm, symObjAddr: 0xFBF0, symBinAddr: 0x100016700, symSize: 0x190 }
  - { offsetInCU: 0xF0CA, offset: 0x234AF, size: 0x8, addend: 0x0, symName: __ZL14readChunk_tRNSP16LodePNGColorModePKhm, symObjAddr: 0xFD80, symBinAddr: 0x100016890, symSize: 0x190 }
  - { offsetInCU: 0xF126, offset: 0x2350B, size: 0x8, addend: 0x0, symName: __ZL14readChunk_bKGDP11LodePNGInfoPKhm, symObjAddr: 0xFF10, symBinAddr: 0x100016A20, symSize: 0x180 }
  - { offsetInCU: 0xF173, offset: 0x23558, size: 0x8, addend: 0x0, symName: __ZL14readChunk_tEXtP11LodePNGInfoPKhm, symObjAddr: 0x10090, symBinAddr: 0x100016BA0, symSize: 0x1F0 }
  - { offsetInCU: 0xF228, offset: 0x2360D, size: 0x8, addend: 0x0, symName: __ZL14readChunk_zTXtP11LodePNGInfoPK25LodePNGDecompressSettingsPKhm, symObjAddr: 0x10280, symBinAddr: 0x100016D90, symSize: 0x210 }
  - { offsetInCU: 0xF2DF, offset: 0x236C4, size: 0x8, addend: 0x0, symName: __ZL14readChunk_iTXtP11LodePNGInfoPK25LodePNGDecompressSettingsPKhm, symObjAddr: 0x10490, symBinAddr: 0x100016FA0, symSize: 0x4A0 }
  - { offsetInCU: 0xF3C5, offset: 0x237AA, size: 0x8, addend: 0x0, symName: __ZL14readChunk_tIMEP11LodePNGInfoPKhm, symObjAddr: 0x10930, symBinAddr: 0x100017440, symSize: 0xC0 }
  - { offsetInCU: 0xF412, offset: 0x237F7, size: 0x8, addend: 0x0, symName: __ZL14readChunk_pHYsP11LodePNGInfoPKhm, symObjAddr: 0x109F0, symBinAddr: 0x100017500, symSize: 0xD0 }
  - { offsetInCU: 0xF45F, offset: 0x23844, size: 0x8, addend: 0x0, symName: __ZL25lodepng_get_raw_size_idatjjPK16LodePNGColorMode, symObjAddr: 0x10AC0, symBinAddr: 0x1000175D0, symSize: 0x60 }
  - { offsetInCU: 0xF4CA, offset: 0x238AF, size: 0x8, addend: 0x0, symName: __ZL16ucvector_cleanupPv, symObjAddr: 0x10B20, symBinAddr: 0x100017630, symSize: 0x50 }
  - { offsetInCU: 0xF4F2, offset: 0x238D7, size: 0x8, addend: 0x0, symName: __ZL20postProcessScanlinesPhS_jjPK11LodePNGInfo, symObjAddr: 0x10B70, symBinAddr: 0x100017680, symSize: 0x360 }
  - { offsetInCU: 0xF639, offset: 0x23A1E, size: 0x8, addend: 0x0, symName: __ZL14lodepng_muloflmmPm, symObjAddr: 0x10ED0, symBinAddr: 0x1000179E0, symSize: 0x60 }
  - { offsetInCU: 0xF686, offset: 0x23A6B, size: 0x8, addend: 0x0, symName: __ZL8unfilterPhPKhjjj, symObjAddr: 0x10F30, symBinAddr: 0x100017A40, symSize: 0x100 }
  - { offsetInCU: 0xF789, offset: 0x23B6E, size: 0x8, addend: 0x0, symName: __ZL17removePaddingBitsPhPKhmmj, symObjAddr: 0x11030, symBinAddr: 0x100017B40, symSize: 0xC0 }
  - { offsetInCU: 0xF868, offset: 0x23C4D, size: 0x8, addend: 0x0, symName: __ZL19Adam7_getpassvaluesPjS_PmS0_S0_jjj, symObjAddr: 0x110F0, symBinAddr: 0x100017C00, symSize: 0x250 }
  - { offsetInCU: 0xF90B, offset: 0x23CF0, size: 0x8, addend: 0x0, symName: __ZL17Adam7_deinterlacePhPKhjjj, symObjAddr: 0x11340, symBinAddr: 0x100017E50, symSize: 0x460 }
  - { offsetInCU: 0xFAEE, offset: 0x23ED3, size: 0x8, addend: 0x0, symName: __ZL16unfilterScanlinePhPKhS1_mhm, symObjAddr: 0x117A0, symBinAddr: 0x1000182B0, symSize: 0x4E0 }
  - { offsetInCU: 0xFB77, offset: 0x23F5C, size: 0x8, addend: 0x0, symName: __ZL14paethPredictorsss, symObjAddr: 0x11C80, symBinAddr: 0x100018790, symSize: 0xC0 }
  - { offsetInCU: 0xFBF1, offset: 0x23FD6, size: 0x8, addend: 0x0, symName: __ZL22setBitOfReversedStreamPmPhh, symObjAddr: 0x11D40, symBinAddr: 0x100018850, symSize: 0xB0 }
  - { offsetInCU: 0xFC3A, offset: 0x2401F, size: 0x8, addend: 0x0, symName: __ZL23setBitOfReversedStream0PmPhh, symObjAddr: 0x11DF0, symBinAddr: 0x100018900, symSize: 0x60 }
  - { offsetInCU: 0xFC83, offset: 0x24068, size: 0x8, addend: 0x0, symName: __ZL14addPaddingBitsPhPKhmmj, symObjAddr: 0x11E50, symBinAddr: 0x100018960, symSize: 0xF0 }
  - { offsetInCU: 0xFD62, offset: 0x24147, size: 0x8, addend: 0x0, symName: __ZL6filterPhPKhjjPK16LodePNGColorModePK22LodePNGEncoderSettings, symObjAddr: 0x11F40, symBinAddr: 0x100018A50, symSize: 0xE90 }
  - { offsetInCU: 0x10071, offset: 0x24456, size: 0x8, addend: 0x0, symName: __ZL15Adam7_interlacePhPKhjjj, symObjAddr: 0x12DD0, symBinAddr: 0x1000198E0, symSize: 0x460 }
  - { offsetInCU: 0x10254, offset: 0x24639, size: 0x8, addend: 0x0, symName: __ZL14filterScanlinePhPKhS1_mmh, symObjAddr: 0x13230, symBinAddr: 0x100019D40, symSize: 0x4D0 }
  - { offsetInCU: 0x102D9, offset: 0x246BE, size: 0x8, addend: 0x0, symName: __ZL5flog2f, symObjAddr: 0x13700, symBinAddr: 0x10001A210, symSize: 0x120 }
  - { offsetInCU: 0x10317, offset: 0x246FC, size: 0x8, addend: 0x0, symName: __ZL8addChunkP8ucvectorPKcPKhm, symObjAddr: 0x13820, symBinAddr: 0x10001A330, symSize: 0x70 }
  - { offsetInCU: 0x10390, offset: 0x24775, size: 0x8, addend: 0x0, symName: __ZNSt3__111__wrap_iterIPKhEC2B7v160006IPhEERKNS0_IT_EEPNS_9enable_ifIXsr14is_convertibleIS6_S2_EE5valueEvE4typeE, symObjAddr: 0x13890, symBinAddr: 0x10001A3A0, symSize: 0x40 }
  - { offsetInCU: 0x103DA, offset: 0x247BF, size: 0x8, addend: 0x0, symName: __ZNKSt3__111__wrap_iterIPhE4baseB7v160006Ev, symObjAddr: 0x138D0, symBinAddr: 0x10001A3E0, symSize: 0x20 }
  - { offsetInCU: 0x103FE, offset: 0x247E3, size: 0x8, addend: 0x0, symName: __ZN12LodePNGStateD0Ev, symObjAddr: 0x138F0, symBinAddr: 0x10001A400, symSize: 0x30 }
  - { offsetInCU: 0x10427, offset: 0x2480C, size: 0x8, addend: 0x0, symName: __ZNKSt3__112basic_stringIcNS_11char_traitsIcEENS_9allocatorIcEEE4dataB7v160006Ev, symObjAddr: 0x13920, symBinAddr: 0x10001A430, symSize: 0x30 }
  - { offsetInCU: 0x1044B, offset: 0x24830, size: 0x8, addend: 0x0, symName: __ZNKSt3__112basic_stringIcNS_11char_traitsIcEENS_9allocatorIcEEE13__get_pointerB7v160006Ev, symObjAddr: 0x13960, symBinAddr: 0x10001A470, symSize: 0x50 }
  - { offsetInCU: 0x1046F, offset: 0x24854, size: 0x8, addend: 0x0, symName: __ZNKSt3__112basic_stringIcNS_11char_traitsIcEENS_9allocatorIcEEE9__is_longB7v160006Ev, symObjAddr: 0x139B0, symBinAddr: 0x10001A4C0, symSize: 0x30 }
  - { offsetInCU: 0x10493, offset: 0x24878, size: 0x8, addend: 0x0, symName: __ZNKSt3__112basic_stringIcNS_11char_traitsIcEENS_9allocatorIcEEE18__get_long_pointerB7v160006Ev, symObjAddr: 0x139E0, symBinAddr: 0x10001A4F0, symSize: 0x20 }
  - { offsetInCU: 0x104B7, offset: 0x2489C, size: 0x8, addend: 0x0, symName: __ZNKSt3__112basic_stringIcNS_11char_traitsIcEENS_9allocatorIcEEE19__get_short_pointerB7v160006Ev, symObjAddr: 0x13A00, symBinAddr: 0x10001A510, symSize: 0x30 }
  - { offsetInCU: 0x104DB, offset: 0x248C0, size: 0x8, addend: 0x0, symName: __ZNKSt3__117__compressed_pairINS_12basic_stringIcNS_11char_traitsIcEENS_9allocatorIcEEE5__repES5_E5firstB7v160006Ev, symObjAddr: 0x13A30, symBinAddr: 0x10001A540, symSize: 0x20 }
  - { offsetInCU: 0x104FF, offset: 0x248E4, size: 0x8, addend: 0x0, symName: __ZNKSt3__122__compressed_pair_elemINS_12basic_stringIcNS_11char_traitsIcEENS_9allocatorIcEEE5__repELi0ELb0EE5__getB7v160006Ev, symObjAddr: 0x13A50, symBinAddr: 0x10001A560, symSize: 0x10 }
  - { offsetInCU: 0x10523, offset: 0x24908, size: 0x8, addend: 0x0, symName: __ZNSt3__114pointer_traitsIPKcE10pointer_toB7v160006ERS1_, symObjAddr: 0x13A60, symBinAddr: 0x10001A570, symSize: 0x10 }
  - { offsetInCU: 0x10545, offset: 0x2492A, size: 0x8, addend: 0x0, symName: __ZNSt3__16vectorIhNS_9allocatorIhEEE8__appendEm, symObjAddr: 0x13A70, symBinAddr: 0x10001A580, symSize: 0xF0 }
  - { offsetInCU: 0x105A1, offset: 0x24986, size: 0x8, addend: 0x0, symName: __ZNSt3__16vectorIhNS_9allocatorIhEEE17__destruct_at_endB7v160006EPh, symObjAddr: 0x13B60, symBinAddr: 0x10001A670, symSize: 0x60 }
  - { offsetInCU: 0x105E3, offset: 0x249C8, size: 0x8, addend: 0x0, symName: __ZNSt3__16vectorIhNS_9allocatorIhEEE9__end_capB7v160006Ev, symObjAddr: 0x13BC0, symBinAddr: 0x10001A6D0, symSize: 0x20 }
  - { offsetInCU: 0x10606, offset: 0x249EB, size: 0x8, addend: 0x0, symName: __ZNSt3__16vectorIhNS_9allocatorIhEEE18__construct_at_endEm, symObjAddr: 0x13BE0, symBinAddr: 0x10001A6F0, symSize: 0xC0 }
  - { offsetInCU: 0x10678, offset: 0x24A5D, size: 0x8, addend: 0x0, symName: __ZNSt3__16vectorIhNS_9allocatorIhEEE7__allocB7v160006Ev, symObjAddr: 0x13CA0, symBinAddr: 0x10001A7B0, symSize: 0x20 }
  - { offsetInCU: 0x1069B, offset: 0x24A80, size: 0x8, addend: 0x0, symName: __ZNKSt3__16vectorIhNS_9allocatorIhEEE11__recommendB7v160006Em, symObjAddr: 0x13CC0, symBinAddr: 0x10001A7D0, symSize: 0xA0 }
  - { offsetInCU: 0x106F0, offset: 0x24AD5, size: 0x8, addend: 0x0, symName: __ZNSt3__114__split_bufferIhRNS_9allocatorIhEEEC1EmmS3_, symObjAddr: 0x13D60, symBinAddr: 0x10001A870, symSize: 0x40 }
  - { offsetInCU: 0x10745, offset: 0x24B2A, size: 0x8, addend: 0x0, symName: __ZNSt3__114__split_bufferIhRNS_9allocatorIhEEE18__construct_at_endEm, symObjAddr: 0x13DA0, symBinAddr: 0x10001A8B0, symSize: 0xB0 }
  - { offsetInCU: 0x10787, offset: 0x24B6C, size: 0x8, addend: 0x0, symName: __ZNSt3__114__split_bufferIhRNS_9allocatorIhEEED1Ev, symObjAddr: 0x13F80, symBinAddr: 0x10001AA90, symSize: 0x20 }
  - { offsetInCU: 0x107B2, offset: 0x24B97, size: 0x8, addend: 0x0, symName: __ZNSt3__117__compressed_pairIPhNS_9allocatorIhEEE5firstB7v160006Ev, symObjAddr: 0x13FA0, symBinAddr: 0x10001AAB0, symSize: 0x20 }
  - { offsetInCU: 0x107D6, offset: 0x24BBB, size: 0x8, addend: 0x0, symName: __ZNSt3__122__compressed_pair_elemIPhLi0ELb0EE5__getB7v160006Ev, symObjAddr: 0x13FC0, symBinAddr: 0x10001AAD0, symSize: 0x10 }
  - { offsetInCU: 0x10813, offset: 0x24BF8, size: 0x8, addend: 0x0, symName: __ZNSt3__16vectorIhNS_9allocatorIhEEE21_ConstructTransactionC1B7v160006ERS3_m, symObjAddr: 0x13FD0, symBinAddr: 0x10001AAE0, symSize: 0x30 }
  - { offsetInCU: 0x1085A, offset: 0x24C3F, size: 0x8, addend: 0x0, symName: __ZNSt3__116allocator_traitsINS_9allocatorIhEEE9constructB7v160006IhJEvEEvRS2_PT_DpOT0_, symObjAddr: 0x14000, symBinAddr: 0x10001AB10, symSize: 0x30 }
  - { offsetInCU: 0x1089C, offset: 0x24C81, size: 0x8, addend: 0x0, symName: __ZNSt3__16vectorIhNS_9allocatorIhEEE21_ConstructTransactionD1B7v160006Ev, symObjAddr: 0x14040, symBinAddr: 0x10001AB50, symSize: 0x20 }
  - { offsetInCU: 0x108C5, offset: 0x24CAA, size: 0x8, addend: 0x0, symName: __ZNSt3__16vectorIhNS_9allocatorIhEEE21_ConstructTransactionC2B7v160006ERS3_m, symObjAddr: 0x14060, symBinAddr: 0x10001AB70, symSize: 0x40 }
  - { offsetInCU: 0x1090C, offset: 0x24CF1, size: 0x8, addend: 0x0, symName: __ZNSt3__19allocatorIhE9constructB7v160006IhJEEEvPT_DpOT0_, symObjAddr: 0x140A0, symBinAddr: 0x10001ABB0, symSize: 0x20 }
  - { offsetInCU: 0x1094C, offset: 0x24D31, size: 0x8, addend: 0x0, symName: __ZNSt3__16vectorIhNS_9allocatorIhEEE21_ConstructTransactionD2B7v160006Ev, symObjAddr: 0x140C0, symBinAddr: 0x10001ABD0, symSize: 0x20 }
  - { offsetInCU: 0x10975, offset: 0x24D5A, size: 0x8, addend: 0x0, symName: __ZNSt3__117__compressed_pairIPhNS_9allocatorIhEEE6secondB7v160006Ev, symObjAddr: 0x140E0, symBinAddr: 0x10001ABF0, symSize: 0x20 }
  - { offsetInCU: 0x10999, offset: 0x24D7E, size: 0x8, addend: 0x0, symName: __ZNSt3__122__compressed_pair_elemINS_9allocatorIhEELi1ELb1EE5__getB7v160006Ev, symObjAddr: 0x14100, symBinAddr: 0x10001AC10, symSize: 0x10 }
  - { offsetInCU: 0x109BC, offset: 0x24DA1, size: 0x8, addend: 0x0, symName: __ZNKSt3__16vectorIhNS_9allocatorIhEEE8max_sizeEv, symObjAddr: 0x14110, symBinAddr: 0x10001AC20, symSize: 0x60 }
  - { offsetInCU: 0x109E4, offset: 0x24DC9, size: 0x8, addend: 0x0, symName: __ZNKSt3__16vectorIhNS_9allocatorIhEEE20__throw_length_errorB7v160006Ev, symObjAddr: 0x14170, symBinAddr: 0x10001AC80, symSize: 0x20 }
  - { offsetInCU: 0x10A08, offset: 0x24DED, size: 0x8, addend: 0x0, symName: __ZNKSt3__16vectorIhNS_9allocatorIhEEE8capacityB7v160006Ev, symObjAddr: 0x14190, symBinAddr: 0x10001ACA0, symSize: 0x30 }
  - { offsetInCU: 0x10A36, offset: 0x24E1B, size: 0x8, addend: 0x0, symName: __ZNSt3__116allocator_traitsINS_9allocatorIhEEE8max_sizeB7v160006IS2_vEEmRKS2_, symObjAddr: 0x14220, symBinAddr: 0x10001ACD0, symSize: 0x20 }
  - { offsetInCU: 0x10A64, offset: 0x24E49, size: 0x8, addend: 0x0, symName: __ZNKSt3__16vectorIhNS_9allocatorIhEEE7__allocB7v160006Ev, symObjAddr: 0x14240, symBinAddr: 0x10001ACF0, symSize: 0x20 }
  - { offsetInCU: 0x10A88, offset: 0x24E6D, size: 0x8, addend: 0x0, symName: __ZNKSt3__19allocatorIhE8max_sizeB7v160006Ev, symObjAddr: 0x142F0, symBinAddr: 0x10001AD10, symSize: 0x20 }
  - { offsetInCU: 0x10AAC, offset: 0x24E91, size: 0x8, addend: 0x0, symName: __ZNKSt3__117__compressed_pairIPhNS_9allocatorIhEEE6secondB7v160006Ev, symObjAddr: 0x14310, symBinAddr: 0x10001AD30, symSize: 0x20 }
  - { offsetInCU: 0x10AD0, offset: 0x24EB5, size: 0x8, addend: 0x0, symName: __ZNKSt3__122__compressed_pair_elemINS_9allocatorIhEELi1ELb1EE5__getB7v160006Ev, symObjAddr: 0x14330, symBinAddr: 0x10001AD50, symSize: 0x10 }
  - { offsetInCU: 0x10AF4, offset: 0x24ED9, size: 0x8, addend: 0x0, symName: __ZNKSt3__16vectorIhNS_9allocatorIhEEE9__end_capB7v160006Ev, symObjAddr: 0x14430, symBinAddr: 0x10001AD60, symSize: 0x20 }
  - { offsetInCU: 0x10B18, offset: 0x24EFD, size: 0x8, addend: 0x0, symName: __ZNKSt3__117__compressed_pairIPhNS_9allocatorIhEEE5firstB7v160006Ev, symObjAddr: 0x14450, symBinAddr: 0x10001AD80, symSize: 0x20 }
  - { offsetInCU: 0x10B3C, offset: 0x24F21, size: 0x8, addend: 0x0, symName: __ZNKSt3__122__compressed_pair_elemIPhLi0ELb0EE5__getB7v160006Ev, symObjAddr: 0x14470, symBinAddr: 0x10001ADA0, symSize: 0x10 }
  - { offsetInCU: 0x10B60, offset: 0x24F45, size: 0x8, addend: 0x0, symName: __ZNSt3__114__split_bufferIhRNS_9allocatorIhEEEC2EmmS3_, symObjAddr: 0x144D0, symBinAddr: 0x10001ADB0, symSize: 0xC0 }
  - { offsetInCU: 0x10BD7, offset: 0x24FBC, size: 0x8, addend: 0x0, symName: __ZNSt3__117__compressed_pairIPhRNS_9allocatorIhEEEC1B7v160006IDnS4_EEOT_OT0_, symObjAddr: 0x14590, symBinAddr: 0x10001AE70, symSize: 0x30 }
  - { offsetInCU: 0x10C2E, offset: 0x25013, size: 0x8, addend: 0x0, symName: __ZNSt3__114__split_bufferIhRNS_9allocatorIhEEE7__allocB7v160006Ev, symObjAddr: 0x14600, symBinAddr: 0x10001AEE0, symSize: 0x20 }
  - { offsetInCU: 0x10C52, offset: 0x25037, size: 0x8, addend: 0x0, symName: __ZNSt3__114__split_bufferIhRNS_9allocatorIhEEE9__end_capB7v160006Ev, symObjAddr: 0x14620, symBinAddr: 0x10001AF00, symSize: 0x20 }
  - { offsetInCU: 0x10C76, offset: 0x2505B, size: 0x8, addend: 0x0, symName: __ZNSt3__117__compressed_pairIPhRNS_9allocatorIhEEEC2B7v160006IDnS4_EEOT_OT0_, symObjAddr: 0x14640, symBinAddr: 0x10001AF20, symSize: 0x40 }
  - { offsetInCU: 0x10CCD, offset: 0x250B2, size: 0x8, addend: 0x0, symName: __ZNSt3__122__compressed_pair_elemIPhLi0ELb0EEC2B7v160006IDnvEEOT_, symObjAddr: 0x14680, symBinAddr: 0x10001AF60, symSize: 0x20 }
  - { offsetInCU: 0x10D0E, offset: 0x250F3, size: 0x8, addend: 0x0, symName: __ZNSt3__122__compressed_pair_elemIRNS_9allocatorIhEELi1ELb0EEC2B7v160006IS3_vEEOT_, symObjAddr: 0x146A0, symBinAddr: 0x10001AF80, symSize: 0x20 }
  - { offsetInCU: 0x10D4F, offset: 0x25134, size: 0x8, addend: 0x0, symName: __ZNSt3__19allocatorIhE8allocateB7v160006Em, symObjAddr: 0x146C0, symBinAddr: 0x10001AFA0, symSize: 0x50 }
  - { offsetInCU: 0x10D81, offset: 0x25166, size: 0x8, addend: 0x0, symName: __ZNSt3__117__compressed_pairIPhRNS_9allocatorIhEEE6secondB7v160006Ev, symObjAddr: 0x14820, symBinAddr: 0x10001AFF0, symSize: 0x20 }
  - { offsetInCU: 0x10DA5, offset: 0x2518A, size: 0x8, addend: 0x0, symName: __ZNSt3__122__compressed_pair_elemIRNS_9allocatorIhEELi1ELb0EE5__getB7v160006Ev, symObjAddr: 0x14840, symBinAddr: 0x10001B010, symSize: 0x20 }
  - { offsetInCU: 0x10DC9, offset: 0x251AE, size: 0x8, addend: 0x0, symName: __ZNSt3__117__compressed_pairIPhRNS_9allocatorIhEEE5firstB7v160006Ev, symObjAddr: 0x14860, symBinAddr: 0x10001B030, symSize: 0x20 }
  - { offsetInCU: 0x10DF7, offset: 0x251DC, size: 0x8, addend: 0x0, symName: __ZNSt3__114__split_bufferIhRNS_9allocatorIhEEE21_ConstructTransactionC1B7v160006EPPhm, symObjAddr: 0x14880, symBinAddr: 0x10001B050, symSize: 0x30 }
  - { offsetInCU: 0x10E3C, offset: 0x25221, size: 0x8, addend: 0x0, symName: __ZNSt3__114__split_bufferIhRNS_9allocatorIhEEE21_ConstructTransactionD1B7v160006Ev, symObjAddr: 0x148B0, symBinAddr: 0x10001B080, symSize: 0x20 }
  - { offsetInCU: 0x10E65, offset: 0x2524A, size: 0x8, addend: 0x0, symName: __ZNSt3__114__split_bufferIhRNS_9allocatorIhEEE21_ConstructTransactionC2B7v160006EPPhm, symObjAddr: 0x148D0, symBinAddr: 0x10001B0A0, symSize: 0x40 }
  - { offsetInCU: 0x10EAA, offset: 0x2528F, size: 0x8, addend: 0x0, symName: __ZNSt3__114__split_bufferIhRNS_9allocatorIhEEE21_ConstructTransactionD2B7v160006Ev, symObjAddr: 0x14910, symBinAddr: 0x10001B0E0, symSize: 0x20 }
  - { offsetInCU: 0x10ED3, offset: 0x252B8, size: 0x8, addend: 0x0, symName: __ZNKSt3__16vectorIhNS_9allocatorIhEEE17__annotate_deleteB7v160006Ev, symObjAddr: 0x14930, symBinAddr: 0x10001B100, symSize: 0xA0 }
  - { offsetInCU: 0x10EF7, offset: 0x252DC, size: 0x8, addend: 0x0, symName: __ZNSt3__116reverse_iteratorIPhEC1B7v160006ES1_, symObjAddr: 0x14A40, symBinAddr: 0x10001B210, symSize: 0x30 }
  - { offsetInCU: 0x10F2E, offset: 0x25313, size: 0x8, addend: 0x0, symName: __ZNKSt3__116reverse_iteratorIPhE4baseB7v160006Ev, symObjAddr: 0x14A70, symBinAddr: 0x10001B240, symSize: 0x20 }
  - { offsetInCU: 0x10F52, offset: 0x25337, size: 0x8, addend: 0x0, symName: __ZNKSt3__16vectorIhNS_9allocatorIhEEE14__annotate_newB7v160006Em, symObjAddr: 0x14AD0, symBinAddr: 0x10001B2A0, symSize: 0xA0 }
  - { offsetInCU: 0x10F85, offset: 0x2536A, size: 0x8, addend: 0x0, symName: __ZNKSt3__16vectorIhNS_9allocatorIhEEE31__annotate_contiguous_containerB7v160006EPKvS5_S5_S5_, symObjAddr: 0x14B80, symBinAddr: 0x10001B350, symSize: 0x20 }
  - { offsetInCU: 0x10FD9, offset: 0x253BE, size: 0x8, addend: 0x0, symName: __ZNKSt3__16vectorIhNS_9allocatorIhEEE4dataB7v160006Ev, symObjAddr: 0x14BA0, symBinAddr: 0x10001B370, symSize: 0x20 }
  - { offsetInCU: 0x11020, offset: 0x25405, size: 0x8, addend: 0x0, symName: __ZNKSt3__111__move_loopINS_17_ClassicAlgPolicyEEclB7v160006INS_16reverse_iteratorIPhEES6_S6_EENS_4pairIT_T1_EES8_T0_S9_, symObjAddr: 0x15000, symBinAddr: 0x10001B7D0, symSize: 0xA0 }
  - { offsetInCU: 0x1108E, offset: 0x25473, size: 0x8, addend: 0x0, symName: __ZNSt3__18_IterOpsINS_17_ClassicAlgPolicyEE11__iter_moveB7v160006IRNS_16reverse_iteratorIPhEEEENS_9enable_ifIXsr12is_referenceIDTdeclsr3stdE7declvalIRT_EEEEE5valueEDTclsr3stdE4movedeclsr3stdE7declvalISA_EEEEE4typeEOS9_, symObjAddr: 0x15220, symBinAddr: 0x10001B9F0, symSize: 0x20 }
  - { offsetInCU: 0x110BA, offset: 0x2549F, size: 0x8, addend: 0x0, symName: __ZNKSt3__116reverse_iteratorIPhEdeB7v160006Ev, symObjAddr: 0x15240, symBinAddr: 0x10001BA10, symSize: 0x30 }
  - { offsetInCU: 0x110EC, offset: 0x254D1, size: 0x8, addend: 0x0, symName: __ZNSt3__116reverse_iteratorIPhEppB7v160006Ev, symObjAddr: 0x15270, symBinAddr: 0x10001BA40, symSize: 0x20 }
  - { offsetInCU: 0x11110, offset: 0x254F5, size: 0x8, addend: 0x0, symName: __ZNSt3__18_IterOpsINS_17_ClassicAlgPolicyEE25__validate_iter_referenceB7v160006IRNS_16reverse_iteratorIPhEEEEvv, symObjAddr: 0x15290, symBinAddr: 0x10001BA60, symSize: 0x10 }
  - { offsetInCU: 0x1112E, offset: 0x25513, size: 0x8, addend: 0x0, symName: __ZNSt3__118__unwrap_iter_implINS_16reverse_iteratorIPhEELb0EE8__unwrapB7v160006ES3_, symObjAddr: 0x152A0, symBinAddr: 0x10001BA70, symSize: 0x20 }
  - { offsetInCU: 0x11156, offset: 0x2553B, size: 0x8, addend: 0x0, symName: __ZNSt3__14pairINS_16reverse_iteratorIPhEES3_EC1B7v160006IS3_S3_LPv0EEEOT_OT0_, symObjAddr: 0x152C0, symBinAddr: 0x10001BA90, symSize: 0x30 }
  - { offsetInCU: 0x111B3, offset: 0x25598, size: 0x8, addend: 0x0, symName: __ZNSt3__14pairINS_16reverse_iteratorIPhEES3_EC2B7v160006IS3_S3_LPv0EEEOT_OT0_, symObjAddr: 0x152F0, symBinAddr: 0x10001BAC0, symSize: 0x40 }
  - { offsetInCU: 0x11210, offset: 0x255F5, size: 0x8, addend: 0x0, symName: __ZNSt3__118__unwrap_iter_implINS_16reverse_iteratorIPhEELb0EE8__rewrapB7v160006ES3_S3_, symObjAddr: 0x15330, symBinAddr: 0x10001BB00, symSize: 0x30 }
  - { offsetInCU: 0x1123D, offset: 0x25622, size: 0x8, addend: 0x0, symName: __ZNSt3__116reverse_iteratorIPhEC2B7v160006ES1_, symObjAddr: 0x15360, symBinAddr: 0x10001BB30, symSize: 0x30 }
  - { offsetInCU: 0x11274, offset: 0x25659, size: 0x8, addend: 0x0, symName: __ZNSt3__114__split_bufferIhRNS_9allocatorIhEEED2Ev, symObjAddr: 0x15390, symBinAddr: 0x10001BB60, symSize: 0x70 }
  - { offsetInCU: 0x1129F, offset: 0x25684, size: 0x8, addend: 0x0, symName: __ZNSt3__114__split_bufferIhRNS_9allocatorIhEEE5clearB7v160006Ev, symObjAddr: 0x15400, symBinAddr: 0x10001BBD0, symSize: 0x20 }
  - { offsetInCU: 0x112C3, offset: 0x256A8, size: 0x8, addend: 0x0, symName: __ZNSt3__116allocator_traitsINS_9allocatorIhEEE10deallocateB7v160006ERS2_Phm, symObjAddr: 0x15420, symBinAddr: 0x10001BBF0, symSize: 0x30 }
  - { offsetInCU: 0x11305, offset: 0x256EA, size: 0x8, addend: 0x0, symName: __ZNKSt3__114__split_bufferIhRNS_9allocatorIhEEE8capacityB7v160006Ev, symObjAddr: 0x15450, symBinAddr: 0x10001BC20, symSize: 0x30 }
  - { offsetInCU: 0x11329, offset: 0x2570E, size: 0x8, addend: 0x0, symName: __ZNSt3__114__split_bufferIhRNS_9allocatorIhEEE17__destruct_at_endB7v160006EPh, symObjAddr: 0x15480, symBinAddr: 0x10001BC50, symSize: 0x30 }
  - { offsetInCU: 0x1135A, offset: 0x2573F, size: 0x8, addend: 0x0, symName: __ZNSt3__114__split_bufferIhRNS_9allocatorIhEEE17__destruct_at_endB7v160006EPhNS_17integral_constantIbLb0EEE, symObjAddr: 0x154B0, symBinAddr: 0x10001BC80, symSize: 0x80 }
  - { offsetInCU: 0x1139A, offset: 0x2577F, size: 0x8, addend: 0x0, symName: __ZNSt3__116allocator_traitsINS_9allocatorIhEEE7destroyB7v160006IhvEEvRS2_PT_, symObjAddr: 0x15530, symBinAddr: 0x10001BD00, symSize: 0x30 }
  - { offsetInCU: 0x113D7, offset: 0x257BC, size: 0x8, addend: 0x0, symName: __ZNSt3__19allocatorIhE7destroyB7v160006EPh, symObjAddr: 0x15560, symBinAddr: 0x10001BD30, symSize: 0x10 }
  - { offsetInCU: 0x11409, offset: 0x257EE, size: 0x8, addend: 0x0, symName: __ZNSt3__19allocatorIhE10deallocateB7v160006EPhm, symObjAddr: 0x15570, symBinAddr: 0x10001BD40, symSize: 0x40 }
  - { offsetInCU: 0x11449, offset: 0x2582E, size: 0x8, addend: 0x0, symName: __ZNKSt3__114__split_bufferIhRNS_9allocatorIhEEE9__end_capB7v160006Ev, symObjAddr: 0x156B0, symBinAddr: 0x10001BD80, symSize: 0x20 }
  - { offsetInCU: 0x1146D, offset: 0x25852, size: 0x8, addend: 0x0, symName: __ZNKSt3__117__compressed_pairIPhRNS_9allocatorIhEEE5firstB7v160006Ev, symObjAddr: 0x156D0, symBinAddr: 0x10001BDA0, symSize: 0x20 }
  - { offsetInCU: 0x11490, offset: 0x25875, size: 0x8, addend: 0x0, symName: __ZNSt3__16vectorIhNS_9allocatorIhEEE27__invalidate_iterators_pastB7v160006EPh, symObjAddr: 0x156F0, symBinAddr: 0x10001BDC0, symSize: 0x10 }
  - { offsetInCU: 0x114C7, offset: 0x258AC, size: 0x8, addend: 0x0, symName: __ZNSt3__16vectorIhNS_9allocatorIhEEE22__base_destruct_at_endB7v160006EPh, symObjAddr: 0x15700, symBinAddr: 0x10001BDD0, symSize: 0x80 }
  - { offsetInCU: 0x11509, offset: 0x258EE, size: 0x8, addend: 0x0, symName: __ZNKSt3__16vectorIhNS_9allocatorIhEEE17__annotate_shrinkB7v160006Em, symObjAddr: 0x15780, symBinAddr: 0x10001BE50, symSize: 0x90 }
  - { offsetInCU: 0x1153C, offset: 0x25921, size: 0x8, addend: 0x0, symName: __ZNSt3__16vectorIhNS_9allocatorIhEEE11__make_iterB7v160006EPh, symObjAddr: 0x15810, symBinAddr: 0x10001BEE0, symSize: 0x30 }
  - { offsetInCU: 0x1156F, offset: 0x25954, size: 0x8, addend: 0x0, symName: __ZNSt3__111__wrap_iterIPhEC1B7v160006EPKvS1_, symObjAddr: 0x15840, symBinAddr: 0x10001BF10, symSize: 0x30 }
  - { offsetInCU: 0x115B4, offset: 0x25999, size: 0x8, addend: 0x0, symName: __ZNSt3__111__wrap_iterIPhEC2B7v160006EPKvS1_, symObjAddr: 0x15870, symBinAddr: 0x10001BF40, symSize: 0x20 }
  - { offsetInCU: 0x115F8, offset: 0x259DD, size: 0x8, addend: 0x0, symName: __ZNSt3__16vectorIhNS_9allocatorIhEEE5beginB7v160006Ev, symObjAddr: 0x158D0, symBinAddr: 0x10001BFA0, symSize: 0x30 }
  - { offsetInCU: 0x1161F, offset: 0x25A04, size: 0x8, addend: 0x0, symName: __ZNSt3__16vectorIhNS_9allocatorIhEEE18__construct_at_endIPhLi0EEEvT_S6_m, symObjAddr: 0x15980, symBinAddr: 0x10001C050, symSize: 0x90 }
  - { offsetInCU: 0x11691, offset: 0x25A76, size: 0x8, addend: 0x0, symName: __ZNSt3__16vectorIhNS_9allocatorIhEEE12__move_rangeEPhS4_S4_, symObjAddr: 0x15A10, symBinAddr: 0x10001C0E0, symSize: 0x110 }
  - { offsetInCU: 0x1174E, offset: 0x25B33, size: 0x8, addend: 0x0, symName: __ZNSt3__114__split_bufferIhRNS_9allocatorIhEEE18__construct_at_endIPhEENS_9enable_ifIXsr27__is_cpp17_forward_iteratorIT_EE5valueEvE4typeES8_S8_, symObjAddr: 0x15B60, symBinAddr: 0x10001C230, symSize: 0xD0 }
  - { offsetInCU: 0x117AA, offset: 0x25B8F, size: 0x8, addend: 0x0, symName: __ZNKSt3__111__wrap_iterIPKhE4baseB7v160006Ev, symObjAddr: 0x15DA0, symBinAddr: 0x10001C470, symSize: 0x20 }
  - { offsetInCU: 0x117CE, offset: 0x25BB3, size: 0x8, addend: 0x0, symName: __ZNSt3__129_AllocatorDestroyRangeReverseINS_9allocatorIhEEPhEC1B7v160006ERS2_RS3_S6_, symObjAddr: 0x15F70, symBinAddr: 0x10001C640, symSize: 0x40 }
  - { offsetInCU: 0x11824, offset: 0x25C09, size: 0x8, addend: 0x0, symName: __ZNSt3__116allocator_traitsINS_9allocatorIhEEE9constructB7v160006IhJRhEvEEvRS2_PT_DpOT0_, symObjAddr: 0x15FB0, symBinAddr: 0x10001C680, symSize: 0x30 }
  - { offsetInCU: 0x1187B, offset: 0x25C60, size: 0x8, addend: 0x0, symName: __ZNSt3__128__exception_guard_exceptionsINS_29_AllocatorDestroyRangeReverseINS_9allocatorIhEEPhEEE10__completeB7v160006Ev, symObjAddr: 0x15FE0, symBinAddr: 0x10001C6B0, symSize: 0x20 }
  - { offsetInCU: 0x1189F, offset: 0x25C84, size: 0x8, addend: 0x0, symName: __ZNSt3__128__exception_guard_exceptionsINS_29_AllocatorDestroyRangeReverseINS_9allocatorIhEEPhEEED1B7v160006Ev, symObjAddr: 0x16000, symBinAddr: 0x10001C6D0, symSize: 0x20 }
  - { offsetInCU: 0x118C8, offset: 0x25CAD, size: 0x8, addend: 0x0, symName: __ZNSt3__128__exception_guard_exceptionsINS_29_AllocatorDestroyRangeReverseINS_9allocatorIhEEPhEEEC1B7v160006ES5_, symObjAddr: 0x16020, symBinAddr: 0x10001C6F0, symSize: 0x40 }
  - { offsetInCU: 0x118FF, offset: 0x25CE4, size: 0x8, addend: 0x0, symName: __ZNSt3__128__exception_guard_exceptionsINS_29_AllocatorDestroyRangeReverseINS_9allocatorIhEEPhEEEC2B7v160006ES5_, symObjAddr: 0x16060, symBinAddr: 0x10001C730, symSize: 0x30 }
  - { offsetInCU: 0x11936, offset: 0x25D1B, size: 0x8, addend: 0x0, symName: __ZNSt3__129_AllocatorDestroyRangeReverseINS_9allocatorIhEEPhEC2B7v160006ERS2_RS3_S6_, symObjAddr: 0x16090, symBinAddr: 0x10001C760, symSize: 0x40 }
  - { offsetInCU: 0x1198C, offset: 0x25D71, size: 0x8, addend: 0x0, symName: __ZNSt3__19allocatorIhE9constructB7v160006IhJRhEEEvPT_DpOT0_, symObjAddr: 0x160D0, symBinAddr: 0x10001C7A0, symSize: 0x20 }
  - { offsetInCU: 0x119E0, offset: 0x25DC5, size: 0x8, addend: 0x0, symName: __ZNSt3__128__exception_guard_exceptionsINS_29_AllocatorDestroyRangeReverseINS_9allocatorIhEEPhEEED2B7v160006Ev, symObjAddr: 0x160F0, symBinAddr: 0x10001C7C0, symSize: 0x40 }
  - { offsetInCU: 0x11A09, offset: 0x25DEE, size: 0x8, addend: 0x0, symName: __ZNKSt3__129_AllocatorDestroyRangeReverseINS_9allocatorIhEEPhEclB7v160006Ev, symObjAddr: 0x16130, symBinAddr: 0x10001C800, symSize: 0x60 }
  - { offsetInCU: 0x11A32, offset: 0x25E17, size: 0x8, addend: 0x0, symName: __ZNSt3__119__to_address_helperINS_16reverse_iteratorIPhEEvE6__callB7v160006ERKS3_, symObjAddr: 0x16220, symBinAddr: 0x10001C8F0, symSize: 0x40 }
  - { offsetInCU: 0x11A55, offset: 0x25E3A, size: 0x8, addend: 0x0, symName: __ZNKSt3__116reverse_iteratorIPhEptB7v160006Ev, symObjAddr: 0x16260, symBinAddr: 0x10001C930, symSize: 0x20 }
  - { offsetInCU: 0x11A79, offset: 0x25E5E, size: 0x8, addend: 0x0, symName: __ZNSt3__116allocator_traitsINS_9allocatorIhEEE9constructB7v160006IhJhEvEEvRS2_PT_DpOT0_, symObjAddr: 0x16280, symBinAddr: 0x10001C950, symSize: 0x30 }
  - { offsetInCU: 0x11AD0, offset: 0x25EB5, size: 0x8, addend: 0x0, symName: __ZNSt3__19allocatorIhE9constructB7v160006IhJhEEEvPT_DpOT0_, symObjAddr: 0x162F0, symBinAddr: 0x10001C9C0, symSize: 0x20 }
  - { offsetInCU: 0x11B47, offset: 0x25F2C, size: 0x8, addend: 0x0, symName: __ZNKSt3__123__move_backward_trivialclB7v160006IhhLi0EEENS_4pairIPT_PT0_EES4_S4_S6_, symObjAddr: 0x16490, symBinAddr: 0x10001CB60, symSize: 0x40 }
  - { offsetInCU: 0x11BAD, offset: 0x25F92, size: 0x8, addend: 0x0, symName: __ZNSt3__14pairIPhS1_EC1B7v160006IRS1_S4_LPv0EEEOT_OT0_, symObjAddr: 0x16630, symBinAddr: 0x10001CD00, symSize: 0x30 }
  - { offsetInCU: 0x11C0A, offset: 0x25FEF, size: 0x8, addend: 0x0, symName: __ZNSt3__14pairIPhS1_EC2B7v160006IRS1_S4_LPv0EEEOT_OT0_, symObjAddr: 0x16660, symBinAddr: 0x10001CD30, symSize: 0x30 }
  - { offsetInCU: 0x11C67, offset: 0x2604C, size: 0x8, addend: 0x0, symName: __ZNSt3__118__unwrap_iter_implIPhLb1EE8__unwrapB7v160006ES1_, symObjAddr: 0x16690, symBinAddr: 0x10001CD60, symSize: 0x20 }
  - { offsetInCU: 0x11C8F, offset: 0x26074, size: 0x8, addend: 0x0, symName: __ZNSt3__14pairIPhS1_EC1B7v160006IS1_S1_LPv0EEEOT_OT0_, symObjAddr: 0x166B0, symBinAddr: 0x10001CD80, symSize: 0x30 }
  - { offsetInCU: 0x11CEC, offset: 0x260D1, size: 0x8, addend: 0x0, symName: __ZNSt3__14pairIPhS1_EC2B7v160006IS1_S1_LPv0EEEOT_OT0_, symObjAddr: 0x166E0, symBinAddr: 0x10001CDB0, symSize: 0x30 }
  - { offsetInCU: 0x11D49, offset: 0x2612E, size: 0x8, addend: 0x0, symName: __ZNSt3__118__unwrap_iter_implIPhLb1EE8__rewrapB7v160006ES1_S1_, symObjAddr: 0x16710, symBinAddr: 0x10001CDE0, symSize: 0x40 }
  - { offsetInCU: 0x11D84, offset: 0x26169, size: 0x8, addend: 0x0, symName: __ZNKSt3__114__copy_trivialclB7v160006IhhLi0EEENS_4pairIPT_PT0_EES4_S4_S6_, symObjAddr: 0x16880, symBinAddr: 0x10001CF50, symSize: 0x40 }
  - { offsetInCU: 0x11DEA, offset: 0x261CF, size: 0x8, addend: 0x0, symName: __ZNSt3__14pairIPhS1_EC1B7v160006IRS1_S1_LPv0EEEOT_OT0_, symObjAddr: 0x16960, symBinAddr: 0x10001D030, symSize: 0x30 }
  - { offsetInCU: 0x11E47, offset: 0x2622C, size: 0x8, addend: 0x0, symName: __ZNSt3__14pairIPhS1_EC2B7v160006IRS1_S1_LPv0EEEOT_OT0_, symObjAddr: 0x16990, symBinAddr: 0x10001D060, symSize: 0x30 }
  - { offsetInCU: 0x11EAE, offset: 0x26293, size: 0x8, addend: 0x0, symName: __ZNKSt3__114__move_trivialclB7v160006IhhLi0EEENS_4pairIPT_PT0_EES4_S4_S6_, symObjAddr: 0x16B60, symBinAddr: 0x10001D230, symSize: 0x40 }
  - { offsetInCU: 0x11F14, offset: 0x262F9, size: 0x8, addend: 0x0, symName: __ZNSt3__16vectorIhNS_9allocatorIhEEEC2B7v160006Ev, symObjAddr: 0x16BA0, symBinAddr: 0x10001D270, symSize: 0x60 }
  - { offsetInCU: 0x11F42, offset: 0x26327, size: 0x8, addend: 0x0, symName: __ZNSt3__117__compressed_pairIPhNS_9allocatorIhEEEC1B7v160006IDnNS_18__default_init_tagEEEOT_OT0_, symObjAddr: 0x16C00, symBinAddr: 0x10001D2D0, symSize: 0x30 }
  - { offsetInCU: 0x11F99, offset: 0x2637E, size: 0x8, addend: 0x0, symName: __ZNSt3__117__compressed_pairIPhNS_9allocatorIhEEEC2B7v160006IDnNS_18__default_init_tagEEEOT_OT0_, symObjAddr: 0x16C40, symBinAddr: 0x10001D310, symSize: 0x40 }
  - { offsetInCU: 0x11FF0, offset: 0x263D5, size: 0x8, addend: 0x0, symName: __ZNSt3__122__compressed_pair_elemINS_9allocatorIhEELi1ELb1EEC2B7v160006ENS_18__default_init_tagE, symObjAddr: 0x16C80, symBinAddr: 0x10001D350, symSize: 0x20 }
  - { offsetInCU: 0x12023, offset: 0x26408, size: 0x8, addend: 0x0, symName: __ZNSt3__19allocatorIhEC2B7v160006Ev, symObjAddr: 0x16CA0, symBinAddr: 0x10001D370, symSize: 0x20 }
  - { offsetInCU: 0x1204C, offset: 0x26431, size: 0x8, addend: 0x0, symName: __ZNSt3__116__non_trivial_ifILb1ENS_9allocatorIhEEEC2B7v160006Ev, symObjAddr: 0x16CC0, symBinAddr: 0x10001D390, symSize: 0x10 }
  - { offsetInCU: 0x12075, offset: 0x2645A, size: 0x8, addend: 0x0, symName: __ZNSt3__16vectorIhNS_9allocatorIhEEED2B7v160006Ev, symObjAddr: 0x16CD0, symBinAddr: 0x10001D3A0, symSize: 0x40 }
  - { offsetInCU: 0x1209E, offset: 0x26483, size: 0x8, addend: 0x0, symName: __ZNSt3__16vectorIhNS_9allocatorIhEEE16__destroy_vectorC1ERS3_, symObjAddr: 0x16D10, symBinAddr: 0x10001D3E0, symSize: 0x30 }
  - { offsetInCU: 0x120D6, offset: 0x264BB, size: 0x8, addend: 0x0, symName: __ZNSt3__16vectorIhNS_9allocatorIhEEE16__destroy_vectorclB7v160006Ev, symObjAddr: 0x16D40, symBinAddr: 0x10001D410, symSize: 0x90 }
  - { offsetInCU: 0x120FA, offset: 0x264DF, size: 0x8, addend: 0x0, symName: __ZNSt3__16vectorIhNS_9allocatorIhEEE16__destroy_vectorC2ERS3_, symObjAddr: 0x16DD0, symBinAddr: 0x10001D4A0, symSize: 0x20 }
  - { offsetInCU: 0x12132, offset: 0x26517, size: 0x8, addend: 0x0, symName: __ZNSt3__16vectorIhNS_9allocatorIhEEE7__clearB7v160006Ev, symObjAddr: 0x16E00, symBinAddr: 0x10001D4D0, symSize: 0x1E }
  - { offsetInCU: 0x26, offset: 0x268C5, size: 0x8, addend: 0x0, symName: __ZN7GMatrixC2Ev, symObjAddr: 0x0, symBinAddr: 0x10001D4F0, symSize: 0x50 }
  - { offsetInCU: 0x2E2C, offset: 0x296CB, size: 0x8, addend: 0x0, symName: __ZN7GMatrixC2Ev, symObjAddr: 0x0, symBinAddr: 0x10001D4F0, symSize: 0x50 }
  - { offsetInCU: 0x2E56, offset: 0x296F5, size: 0x8, addend: 0x0, symName: __ZN7GMatrixC1Ev, symObjAddr: 0x50, symBinAddr: 0x10001D540, symSize: 0x20 }
  - { offsetInCU: 0x2E80, offset: 0x2971F, size: 0x8, addend: 0x0, symName: __ZN7GMatrix9TranslateEff, symObjAddr: 0x70, symBinAddr: 0x10001D560, symSize: 0x50 }
  - { offsetInCU: 0x2EC2, offset: 0x29761, size: 0x8, addend: 0x0, symName: __ZN7GMatrixC1Effffff, symObjAddr: 0xC0, symBinAddr: 0x10001D5B0, symSize: 0x60 }
  - { offsetInCU: 0x2F3F, offset: 0x297DE, size: 0x8, addend: 0x0, symName: __ZN7GMatrix5ScaleEff, symObjAddr: 0x120, symBinAddr: 0x10001D610, symSize: 0x40 }
  - { offsetInCU: 0x2F81, offset: 0x29820, size: 0x8, addend: 0x0, symName: __ZN7GMatrix6RotateEf, symObjAddr: 0x160, symBinAddr: 0x10001D650, symSize: 0x90 }
  - { offsetInCU: 0x2FB4, offset: 0x29853, size: 0x8, addend: 0x0, symName: __Z3cosB7v160006f, symObjAddr: 0x1F0, symBinAddr: 0x10001D6E0, symSize: 0x20 }
  - { offsetInCU: 0x2FE2, offset: 0x29881, size: 0x8, addend: 0x0, symName: __Z3sinB7v160006f, symObjAddr: 0x210, symBinAddr: 0x10001D700, symSize: 0x20 }
  - { offsetInCU: 0x3010, offset: 0x298AF, size: 0x8, addend: 0x0, symName: __ZN7GMatrix6ConcatERKS_S1_, symObjAddr: 0x230, symBinAddr: 0x10001D720, symSize: 0x300 }
  - { offsetInCU: 0x3042, offset: 0x298E1, size: 0x8, addend: 0x0, symName: __ZNK7GMatrixixEi, symObjAddr: 0x530, symBinAddr: 0x10001DA20, symSize: 0x80 }
  - { offsetInCU: 0x3074, offset: 0x29913, size: 0x8, addend: 0x0, symName: __Z11determinantRK7GMatrix, symObjAddr: 0x5B0, symBinAddr: 0x10001DAA0, symSize: 0x90 }
  - { offsetInCU: 0x30A0, offset: 0x2993F, size: 0x8, addend: 0x0, symName: __ZNK7GMatrix6invertEv, symObjAddr: 0x640, symBinAddr: 0x10001DB30, symSize: 0x240 }
  - { offsetInCU: 0x30F0, offset: 0x2998F, size: 0x8, addend: 0x0, symName: __ZNSt3__18optionalI7GMatrixEC1B7v160006Ev, symObjAddr: 0x880, symBinAddr: 0x10001DD70, symSize: 0x20 }
  - { offsetInCU: 0x3119, offset: 0x299B8, size: 0x8, addend: 0x0, symName: __ZN7GMatrixixEi, symObjAddr: 0x8A0, symBinAddr: 0x10001DD90, symSize: 0x80 }
  - { offsetInCU: 0x3150, offset: 0x299EF, size: 0x8, addend: 0x0, symName: __ZNSt3__18optionalI7GMatrixEC1B7v160006IS1_Li0EEEOT_, symObjAddr: 0x920, symBinAddr: 0x10001DE10, symSize: 0x30 }
  - { offsetInCU: 0x3197, offset: 0x29A36, size: 0x8, addend: 0x0, symName: __ZNK7GMatrix9mapPointsEP6GPointPKS0_i, symObjAddr: 0x950, symBinAddr: 0x10001DE40, symSize: 0x180 }
  - { offsetInCU: 0x323C, offset: 0x29ADB, size: 0x8, addend: 0x0, symName: __ZN7GMatrixC2Effffff, symObjAddr: 0xAD0, symBinAddr: 0x10001DFC0, symSize: 0x70 }
  - { offsetInCU: 0x32B9, offset: 0x29B58, size: 0x8, addend: 0x0, symName: __ZNSt3__18optionalI7GMatrixEC2B7v160006Ev, symObjAddr: 0xB40, symBinAddr: 0x10001E030, symSize: 0x20 }
  - { offsetInCU: 0x32E7, offset: 0x29B86, size: 0x8, addend: 0x0, symName: __ZNSt3__127__optional_move_assign_baseI7GMatrixLb1EEC2Ev, symObjAddr: 0xB60, symBinAddr: 0x10001E050, symSize: 0x20 }
  - { offsetInCU: 0x3318, offset: 0x29BB7, size: 0x8, addend: 0x0, symName: __ZNSt3__127__optional_copy_assign_baseI7GMatrixLb1EEC2Ev, symObjAddr: 0xB80, symBinAddr: 0x10001E070, symSize: 0x20 }
  - { offsetInCU: 0x3349, offset: 0x29BE8, size: 0x8, addend: 0x0, symName: __ZNSt3__120__optional_move_baseI7GMatrixLb1EEC2Ev, symObjAddr: 0xBA0, symBinAddr: 0x10001E090, symSize: 0x20 }
  - { offsetInCU: 0x337A, offset: 0x29C19, size: 0x8, addend: 0x0, symName: __ZNSt3__120__optional_copy_baseI7GMatrixLb1EEC2Ev, symObjAddr: 0xBC0, symBinAddr: 0x10001E0B0, symSize: 0x20 }
  - { offsetInCU: 0x33A6, offset: 0x29C45, size: 0x8, addend: 0x0, symName: __ZNSt3__123__optional_storage_baseI7GMatrixLb0EEC2Ev, symObjAddr: 0xBE0, symBinAddr: 0x10001E0D0, symSize: 0x20 }
  - { offsetInCU: 0x33D2, offset: 0x29C71, size: 0x8, addend: 0x0, symName: __ZNSt3__124__optional_destruct_baseI7GMatrixLb1EEC2B7v160006Ev, symObjAddr: 0xC00, symBinAddr: 0x10001E0F0, symSize: 0x20 }
  - { offsetInCU: 0x33FB, offset: 0x29C9A, size: 0x8, addend: 0x0, symName: __ZNSt3__18optionalI7GMatrixEC2B7v160006IS1_Li0EEEOT_, symObjAddr: 0xC20, symBinAddr: 0x10001E110, symSize: 0x30 }
  - { offsetInCU: 0x3442, offset: 0x29CE1, size: 0x8, addend: 0x0, symName: __ZNSt3__127__optional_move_assign_baseI7GMatrixLb1EECI2NS_24__optional_destruct_baseIS1_Lb1EEEIJS1_EEENS_10in_place_tEDpOT_, symObjAddr: 0xC50, symBinAddr: 0x10001E140, symSize: 0x30 }
  - { offsetInCU: 0x3480, offset: 0x29D1F, size: 0x8, addend: 0x0, symName: __ZNSt3__127__optional_copy_assign_baseI7GMatrixLb1EECI2NS_24__optional_destruct_baseIS1_Lb1EEEIJS1_EEENS_10in_place_tEDpOT_, symObjAddr: 0xC80, symBinAddr: 0x10001E170, symSize: 0x30 }
  - { offsetInCU: 0x34BE, offset: 0x29D5D, size: 0x8, addend: 0x0, symName: __ZNSt3__120__optional_move_baseI7GMatrixLb1EECI2NS_24__optional_destruct_baseIS1_Lb1EEEIJS1_EEENS_10in_place_tEDpOT_, symObjAddr: 0xCB0, symBinAddr: 0x10001E1A0, symSize: 0x30 }
  - { offsetInCU: 0x34FC, offset: 0x29D9B, size: 0x8, addend: 0x0, symName: __ZNSt3__120__optional_copy_baseI7GMatrixLb1EECI2NS_24__optional_destruct_baseIS1_Lb1EEEIJS1_EEENS_10in_place_tEDpOT_, symObjAddr: 0xCE0, symBinAddr: 0x10001E1D0, symSize: 0x30 }
  - { offsetInCU: 0x353A, offset: 0x29DD9, size: 0x8, addend: 0x0, symName: __ZNSt3__123__optional_storage_baseI7GMatrixLb0EECI2NS_24__optional_destruct_baseIS1_Lb1EEEIJS1_EEENS_10in_place_tEDpOT_, symObjAddr: 0xD10, symBinAddr: 0x10001E200, symSize: 0x30 }
  - { offsetInCU: 0x3578, offset: 0x29E17, size: 0x8, addend: 0x0, symName: __ZNSt3__124__optional_destruct_baseI7GMatrixLb1EEC2B7v160006IJS1_EEENS_10in_place_tEDpOT_, symObjAddr: 0xD40, symBinAddr: 0x10001E230, symSize: 0x30 }
  - { offsetInCU: 0x3F, offset: 0x29EC8, size: 0x8, addend: 0x0, symName: _gProcs, symObjAddr: 0x16610, symBinAddr: 0x10003C670, symSize: 0x0 }
  - { offsetInCU: 0x51E9, offset: 0x2F072, size: 0x8, addend: 0x0, symName: __ZNSt3__124__put_character_sequenceB7v160006IcNS_11char_traitsIcEEEERNS_13basic_ostreamIT_T0_EES7_PKS4_m, symObjAddr: 0x5700, symBinAddr: 0x100023890, symSize: 0x1F0 }
  - { offsetInCU: 0xB34C, offset: 0x351D5, size: 0x8, addend: 0x0, symName: '__ZNSt3__111__introsortINS_17_ClassicAlgPolicyERZN8MyCanvas17drawConvexPolygonEPK6GPointiRK6GPaintE3$_0P4EdgeEEvT1_SD_T0_NS_15iterator_traitsISD_E15difference_typeE', symObjAddr: 0xE6B0, symBinAddr: 0x10002A400, symSize: 0x6B0 }
  - { offsetInCU: 0xB4AE, offset: 0x35337, size: 0x8, addend: 0x0, symName: '__ZNSt3__118__insertion_sort_3B7v160006INS_17_ClassicAlgPolicyERZN8MyCanvas17drawConvexPolygonEPK6GPointiRK6GPaintE3$_0P4EdgeEEvT1_SD_T0_', symObjAddr: 0xEEB0, symBinAddr: 0x10002AC00, symSize: 0x150 }
  - { offsetInCU: 0xB583, offset: 0x3540C, size: 0x8, addend: 0x0, symName: '__ZNSt3__111__sift_downB7v160006INS_17_ClassicAlgPolicyERZN8MyCanvas17drawConvexPolygonEPK6GPointiRK6GPaintE3$_0P4EdgeEEvT1_OT0_NS_15iterator_traitsISD_E15difference_typeESD_', symObjAddr: 0xF880, symBinAddr: 0x10002B5D0, symSize: 0x210 }
  - { offsetInCU: 0xB631, offset: 0x354BA, size: 0x8, addend: 0x0, symName: '__ZNSt3__117__floyd_sift_downB7v160006INS_17_ClassicAlgPolicyERZN8MyCanvas17drawConvexPolygonEPK6GPointiRK6GPaintE3$_0P4EdgeEET1_SD_OT0_NS_15iterator_traitsISD_E15difference_typeE', symObjAddr: 0xFC40, symBinAddr: 0x10002B990, symSize: 0x110 }
  - { offsetInCU: 0xB6C9, offset: 0x35552, size: 0x8, addend: 0x0, symName: '__ZNSt3__127__insertion_sort_incompleteIRZN8MyCanvas17drawConvexPolygonEPK6GPointiRK6GPaintE3$_0P4EdgeEEbT0_SC_T_', symObjAddr: 0xF220, symBinAddr: 0x10002AF70, symSize: 0x2D0 }
  - { offsetInCU: 0xBCFE, offset: 0x35B87, size: 0x8, addend: 0x0, symName: '__ZNSt3__111__introsortINS_17_ClassicAlgPolicyERZN8MyCanvas8drawPathERK5GPathRK6GPaintE3$_1P4EdgeEEvT1_SD_T0_NS_15iterator_traitsISD_E15difference_typeE', symObjAddr: 0x128A0, symBinAddr: 0x10002E5F0, symSize: 0x6B0 }
  - { offsetInCU: 0xBE60, offset: 0x35CE9, size: 0x8, addend: 0x0, symName: '__ZNSt3__118__insertion_sort_3B7v160006INS_17_ClassicAlgPolicyERZN8MyCanvas8drawPathERK5GPathRK6GPaintE3$_1P4EdgeEEvT1_SD_T0_', symObjAddr: 0x13090, symBinAddr: 0x10002EDE0, symSize: 0x150 }
  - { offsetInCU: 0xBF35, offset: 0x35DBE, size: 0x8, addend: 0x0, symName: '__ZNSt3__111__sift_downB7v160006INS_17_ClassicAlgPolicyERZN8MyCanvas8drawPathERK5GPathRK6GPaintE3$_1P4EdgeEEvT1_OT0_NS_15iterator_traitsISD_E15difference_typeESD_', symObjAddr: 0x13960, symBinAddr: 0x10002F6B0, symSize: 0x210 }
  - { offsetInCU: 0xBFE3, offset: 0x35E6C, size: 0x8, addend: 0x0, symName: '__ZNSt3__117__floyd_sift_downB7v160006INS_17_ClassicAlgPolicyERZN8MyCanvas8drawPathERK5GPathRK6GPaintE3$_1P4EdgeEET1_SD_OT0_NS_15iterator_traitsISD_E15difference_typeE', symObjAddr: 0x13D20, symBinAddr: 0x10002FA70, symSize: 0x110 }
  - { offsetInCU: 0xC07B, offset: 0x35F04, size: 0x8, addend: 0x0, symName: '__ZNSt3__127__insertion_sort_incompleteIRZN8MyCanvas8drawPathERK5GPathRK6GPaintE3$_1P4EdgeEEbT0_SC_T_', symObjAddr: 0x13400, symBinAddr: 0x10002F150, symSize: 0x2D0 }
  - { offsetInCU: 0xC185, offset: 0x3600E, size: 0x8, addend: 0x0, symName: '__ZNSt3__111__introsortINS_17_ClassicAlgPolicyERZN8MyCanvas8drawPathERK5GPathRK6GPaintE3$_2P4EdgeEEvT1_SD_T0_NS_15iterator_traitsISD_E15difference_typeE', symObjAddr: 0x147B0, symBinAddr: 0x100030500, symSize: 0x6B0 }
  - { offsetInCU: 0xC2E7, offset: 0x36170, size: 0x8, addend: 0x0, symName: '__ZNSt3__118__insertion_sort_3B7v160006INS_17_ClassicAlgPolicyERZN8MyCanvas8drawPathERK5GPathRK6GPaintE3$_2P4EdgeEEvT1_SD_T0_', symObjAddr: 0x14F90, symBinAddr: 0x100030CE0, symSize: 0x150 }
  - { offsetInCU: 0xC3BC, offset: 0x36245, size: 0x8, addend: 0x0, symName: '__ZNSt3__111__sift_downB7v160006INS_17_ClassicAlgPolicyERZN8MyCanvas8drawPathERK5GPathRK6GPaintE3$_2P4EdgeEEvT1_OT0_NS_15iterator_traitsISD_E15difference_typeESD_', symObjAddr: 0x15860, symBinAddr: 0x1000315B0, symSize: 0x210 }
  - { offsetInCU: 0xC46A, offset: 0x362F3, size: 0x8, addend: 0x0, symName: '__ZNSt3__117__floyd_sift_downB7v160006INS_17_ClassicAlgPolicyERZN8MyCanvas8drawPathERK5GPathRK6GPaintE3$_2P4EdgeEET1_SD_OT0_NS_15iterator_traitsISD_E15difference_typeE', symObjAddr: 0x15C20, symBinAddr: 0x100031970, symSize: 0x110 }
  - { offsetInCU: 0xC502, offset: 0x3638B, size: 0x8, addend: 0x0, symName: '__ZNSt3__127__insertion_sort_incompleteIRZN8MyCanvas8drawPathERK5GPathRK6GPaintE3$_2P4EdgeEEbT0_SC_T_', symObjAddr: 0x15300, symBinAddr: 0x100031050, symSize: 0x2D0 }
  - { offsetInCU: 0xD109, offset: 0x36F92, size: 0x8, addend: 0x0, symName: __ZNSt3__13maxB7v160006IiEERKT_S3_S3_, symObjAddr: 0x120, symBinAddr: 0x10001E380, symSize: 0x30 }
  - { offsetInCU: 0xD14C, offset: 0x36FD5, size: 0x8, addend: 0x0, symName: __ZNSt3__13minB7v160006IiEERKT_S3_S3_, symObjAddr: 0x180, symBinAddr: 0x10001E3E0, symSize: 0x30 }
  - { offsetInCU: 0xD18F, offset: 0x37018, size: 0x8, addend: 0x0, symName: __ZNSt3__14swapB7v160006IiEENS_9enable_ifIXaasr21is_move_constructibleIT_EE5valuesr18is_move_assignableIS2_EE5valueEvE4typeERS2_S5_, symObjAddr: 0x1100, symBinAddr: 0x10001F330, symSize: 0x30 }
  - { offsetInCU: 0xD1E0, offset: 0x37069, size: 0x8, addend: 0x0, symName: '__ZNSt3__14sortB7v160006INS_11__wrap_iterIP4EdgeEEZN8MyCanvas17drawConvexPolygonEPK6GPointiRK6GPaintE3$_0EEvT_SD_T0_', symObjAddr: 0x3820, symBinAddr: 0x100021A50, symSize: 0x40 }
  - { offsetInCU: 0xD23B, offset: 0x370C4, size: 0x8, addend: 0x0, symName: '__ZNSt3__14sortB7v160006INS_11__wrap_iterIP4EdgeEEZN8MyCanvas8drawPathERK5GPathRK6GPaintE3$_1EEvT_SD_T0_', symObjAddr: 0x4A80, symBinAddr: 0x100022C90, symSize: 0x40 }
  - { offsetInCU: 0xD296, offset: 0x3711F, size: 0x8, addend: 0x0, symName: '__ZNSt3__14sortB7v160006INS_11__wrap_iterIP4EdgeEEZN8MyCanvas8drawPathERK5GPathRK6GPaintE3$_2EEvT_SD_T0_', symObjAddr: 0x4C10, symBinAddr: 0x100022E20, symSize: 0x40 }
  - { offsetInCU: 0xD2F1, offset: 0x3717A, size: 0x8, addend: 0x0, symName: __ZNSt3__13maxB7v160006IiNS_6__lessIiiEEEERKT_S5_S5_T0_, symObjAddr: 0x4D10, symBinAddr: 0x100022F20, symSize: 0x50 }
  - { offsetInCU: 0xD386, offset: 0x3720F, size: 0x8, addend: 0x0, symName: __ZNSt3__13minB7v160006IiNS_6__lessIiiEEEERKT_S5_S5_T0_, symObjAddr: 0x4D90, symBinAddr: 0x100022FA0, symSize: 0x50 }
  - { offsetInCU: 0xD3E0, offset: 0x37269, size: 0x8, addend: 0x0, symName: __ZNSt3__1lsB7v160006INS_11char_traitsIcEEEERNS_13basic_ostreamIcT_EES6_PKc, symObjAddr: 0x51A0, symBinAddr: 0x1000233B0, symSize: 0x40 }
  - { offsetInCU: 0xD426, offset: 0x372AF, size: 0x8, addend: 0x0, symName: __ZNSt3__14endlB7v160006IcNS_11char_traitsIcEEEERNS_13basic_ostreamIT_T0_EES7_, symObjAddr: 0x5200, symBinAddr: 0x100023410, symSize: 0x50 }
  - { offsetInCU: 0xD466, offset: 0x372EF, size: 0x8, addend: 0x0, symName: __ZNSt3__116__pad_and_outputB7v160006IcNS_11char_traitsIcEEEENS_19ostreambuf_iteratorIT_T0_EES6_PKS4_S8_S8_RNS_8ios_baseES4_, symObjAddr: 0x5940, symBinAddr: 0x100023AD0, symSize: 0x220 }
  - { offsetInCU: 0xD537, offset: 0x373C0, size: 0x8, addend: 0x0, symName: __ZNSt3__119__debug_db_insert_cB7v160006INS_12basic_stringIcNS_11char_traitsIcEENS_9allocatorIcEEEEEEvPT_, symObjAddr: 0x5DE0, symBinAddr: 0x100023F60, symSize: 0x10 }
  - { offsetInCU: 0xD568, offset: 0x373F1, size: 0x8, addend: 0x0, symName: __ZNSt3__112__to_addressB7v160006IcEEPT_S2_, symObjAddr: 0x5E80, symBinAddr: 0x100024000, symSize: 0x10 }
  - { offsetInCU: 0xD5D0, offset: 0x37459, size: 0x8, addend: 0x0, symName: __ZNSt3__19use_facetB7v160006INS_5ctypeIcEEEERKT_RKNS_6localeE, symObjAddr: 0x6110, symBinAddr: 0x100024230, symSize: 0x30 }
  - { offsetInCU: 0xDAB7, offset: 0x37940, size: 0x8, addend: 0x0, symName: __ZNSt3__118__constexpr_strlenB7v160006EPKc, symObjAddr: 0x61A0, symBinAddr: 0x1000242C0, symSize: 0x20 }
  - { offsetInCU: 0xDAE3, offset: 0x3796C, size: 0x8, addend: 0x0, symName: __ZNSt3__119__debug_db_insert_cB7v160006INS_6vectorI6GColorNS_9allocatorIS2_EEEEEEvPT_, symObjAddr: 0x6BC0, symBinAddr: 0x100024B70, symSize: 0x10 }
  - { offsetInCU: 0xDB14, offset: 0x3799D, size: 0x8, addend: 0x0, symName: __ZNSt3__112__to_addressB7v160006I6GColorEEPT_S3_, symObjAddr: 0x6EB0, symBinAddr: 0x100024E60, symSize: 0x10 }
  - { offsetInCU: 0xDB49, offset: 0x379D2, size: 0x8, addend: 0x0, symName: __ZNSt3__119__allocate_at_leastB7v160006INS_9allocatorI6GColorEEEENS_19__allocation_resultINS_16allocator_traitsIT_E7pointerEEERS6_m, symObjAddr: 0x76B0, symBinAddr: 0x100025430, symSize: 0x40 }
  - { offsetInCU: 0xDB8C, offset: 0x37A15, size: 0x8, addend: 0x0, symName: __ZNSt3__142__uninitialized_allocator_move_if_noexceptB7v160006INS_9allocatorI6GColorEENS_16reverse_iteratorIPS2_EES6_S2_vEET1_RT_T0_SA_S7_, symObjAddr: 0x7A00, symBinAddr: 0x100025670, symSize: 0x70 }
  - { offsetInCU: 0xDC09, offset: 0x37A92, size: 0x8, addend: 0x0, symName: __ZNSt3__14swapB7v160006IP6GColorEENS_9enable_ifIXaasr21is_move_constructibleIT_EE5valuesr18is_move_assignableIS4_EE5valueEvE4typeERS4_S7_, symObjAddr: 0x7AC0, symBinAddr: 0x100025730, symSize: 0x40 }
  - { offsetInCU: 0xDC5A, offset: 0x37AE3, size: 0x8, addend: 0x0, symName: __ZNSt3__125__debug_db_invalidate_allB7v160006INS_6vectorI6GColorNS_9allocatorIS2_EEEEEEvPT_, symObjAddr: 0x7BB0, symBinAddr: 0x100025820, symSize: 0x10 }
  - { offsetInCU: 0xDC8B, offset: 0x37B14, size: 0x8, addend: 0x0, symName: __ZNSt3__14moveB7v160006INS_16reverse_iteratorIP6GColorEES4_EET0_T_S6_S5_, symObjAddr: 0x7C00, symBinAddr: 0x100025870, symSize: 0x80 }
  - { offsetInCU: 0xDCE5, offset: 0x37B6E, size: 0x8, addend: 0x0, symName: __ZNSt3__16__moveB7v160006INS_17_ClassicAlgPolicyENS_16reverse_iteratorIP6GColorEES5_S5_EENS_4pairIT0_T2_EES7_T1_S8_, symObjAddr: 0x7C80, symBinAddr: 0x1000258F0, symSize: 0x90 }
  - { offsetInCU: 0xDD51, offset: 0x37BDA, size: 0x8, addend: 0x0, symName: __ZNSt3__123__dispatch_copy_or_moveB7v160006INS_17_ClassicAlgPolicyENS_11__move_loopIS1_EENS_14__move_trivialENS_16reverse_iteratorIP6GColorEES8_S8_EENS_4pairIT2_T4_EESA_T3_SB_, symObjAddr: 0x7D10, symBinAddr: 0x100025980, symSize: 0x90 }
  - { offsetInCU: 0xDDCF, offset: 0x37C58, size: 0x8, addend: 0x0, symName: __ZNSt3__121__unwrap_and_dispatchB7v160006INS_10__overloadINS_11__move_loopINS_17_ClassicAlgPolicyEEENS_14__move_trivialEEENS_16reverse_iteratorIP6GColorEESA_SA_Li0EEENS_4pairIT0_T2_EESC_T1_SD_, symObjAddr: 0x7DA0, symBinAddr: 0x100025A10, symSize: 0x210 }
  - { offsetInCU: 0xDE5E, offset: 0x37CE7, size: 0x8, addend: 0x0, symName: __ZNSt3__114__unwrap_rangeB7v160006INS_16reverse_iteratorIP6GColorEES4_EENS_4pairIT0_S6_EET_S8_, symObjAddr: 0x7FB0, symBinAddr: 0x100025C20, symSize: 0x90 }
  - { offsetInCU: 0xE04E, offset: 0x37ED7, size: 0x8, addend: 0x0, symName: __ZNSt3__113__unwrap_iterB7v160006INS_16reverse_iteratorIP6GColorEENS_18__unwrap_iter_implIS4_Lb0EEELi0EEEDTclsrT0_8__unwrapclsr3stdE7declvalIT_EEEES8_, symObjAddr: 0x80E0, symBinAddr: 0x100025D50, symSize: 0x40 }
  - { offsetInCU: 0xE092, offset: 0x37F1B, size: 0x8, addend: 0x0, symName: __ZNSt3__19make_pairB7v160006INS_16reverse_iteratorIP6GColorEES4_EENS_4pairINS_18__unwrap_ref_decayIT_E4typeENS6_IT0_E4typeEEEOS7_OSA_, symObjAddr: 0x8120, symBinAddr: 0x100025D90, symSize: 0x30 }
  - { offsetInCU: 0xE0E1, offset: 0x37F6A, size: 0x8, addend: 0x0, symName: __ZNSt3__114__rewrap_rangeB7v160006INS_16reverse_iteratorIP6GColorEES4_EET_S5_T0_, symObjAddr: 0x8150, symBinAddr: 0x100025DC0, symSize: 0x60 }
  - { offsetInCU: 0xE12D, offset: 0x37FB6, size: 0x8, addend: 0x0, symName: __ZNSt3__113__rewrap_iterB7v160006INS_16reverse_iteratorIP6GColorEES4_NS_18__unwrap_iter_implIS4_Lb0EEEEET_S7_T0_, symObjAddr: 0x81B0, symBinAddr: 0x100025E20, symSize: 0x70 }
  - { offsetInCU: 0xE182, offset: 0x3800B, size: 0x8, addend: 0x0, symName: __ZNSt3__1neB7v160006IP6GColorS2_EEbRKNS_16reverse_iteratorIT_EERKNS3_IT0_EE, symObjAddr: 0x8220, symBinAddr: 0x100025E90, symSize: 0x40 }
  - { offsetInCU: 0xE364, offset: 0x381ED, size: 0x8, addend: 0x0, symName: __ZNSt3__118__debug_db_erase_cB7v160006INS_6vectorI6GColorNS_9allocatorIS2_EEEEEEvPT_, symObjAddr: 0x8850, symBinAddr: 0x1000263C0, symSize: 0x10 }
  - { offsetInCU: 0xE395, offset: 0x3821E, size: 0x8, addend: 0x0, symName: __ZNSt3__14swapB7v160006I6GPointEENS_9enable_ifIXaasr21is_move_constructibleIT_EE5valuesr18is_move_assignableIS3_EE5valueEvE4typeERS3_S6_, symObjAddr: 0x8BA0, symBinAddr: 0x100026640, symSize: 0x40 }
  - { offsetInCU: 0xE3E6, offset: 0x3826F, size: 0x8, addend: 0x0, symName: __ZNSt3__112__to_addressB7v160006I4EdgeEEPT_S3_, symObjAddr: 0x9180, symBinAddr: 0x100026C20, symSize: 0x10 }
  - { offsetInCU: 0xE41B, offset: 0x382A4, size: 0x8, addend: 0x0, symName: __ZNSt3__119__allocate_at_leastB7v160006INS_9allocatorI4EdgeEEEENS_19__allocation_resultINS_16allocator_traitsIT_E7pointerEEERS6_m, symObjAddr: 0x9730, symBinAddr: 0x1000271D0, symSize: 0x40 }
  - { offsetInCU: 0xE45E, offset: 0x382E7, size: 0x8, addend: 0x0, symName: __ZNSt3__142__uninitialized_allocator_move_if_noexceptB7v160006INS_9allocatorI4EdgeEENS_16reverse_iteratorIPS2_EES6_S2_vEET1_RT_T0_SA_S7_, symObjAddr: 0x9990, symBinAddr: 0x100027430, symSize: 0x70 }
  - { offsetInCU: 0xE4DB, offset: 0x38364, size: 0x8, addend: 0x0, symName: __ZNSt3__14swapB7v160006IP4EdgeEENS_9enable_ifIXaasr21is_move_constructibleIT_EE5valuesr18is_move_assignableIS4_EE5valueEvE4typeERS4_S7_, symObjAddr: 0x9A50, symBinAddr: 0x1000274F0, symSize: 0x40 }
  - { offsetInCU: 0xE52C, offset: 0x383B5, size: 0x8, addend: 0x0, symName: __ZNSt3__125__debug_db_invalidate_allB7v160006INS_6vectorI4EdgeNS_9allocatorIS2_EEEEEEvPT_, symObjAddr: 0x9B30, symBinAddr: 0x1000275D0, symSize: 0x10 }
  - { offsetInCU: 0xE55D, offset: 0x383E6, size: 0x8, addend: 0x0, symName: __ZNSt3__14moveB7v160006INS_16reverse_iteratorIP4EdgeEES4_EET0_T_S6_S5_, symObjAddr: 0x9B80, symBinAddr: 0x100027620, symSize: 0x80 }
  - { offsetInCU: 0xE5B7, offset: 0x38440, size: 0x8, addend: 0x0, symName: __ZNSt3__16__moveB7v160006INS_17_ClassicAlgPolicyENS_16reverse_iteratorIP4EdgeEES5_S5_EENS_4pairIT0_T2_EES7_T1_S8_, symObjAddr: 0x9C00, symBinAddr: 0x1000276A0, symSize: 0x90 }
  - { offsetInCU: 0xE623, offset: 0x384AC, size: 0x8, addend: 0x0, symName: __ZNSt3__123__dispatch_copy_or_moveB7v160006INS_17_ClassicAlgPolicyENS_11__move_loopIS1_EENS_14__move_trivialENS_16reverse_iteratorIP4EdgeEES8_S8_EENS_4pairIT2_T4_EESA_T3_SB_, symObjAddr: 0x9C90, symBinAddr: 0x100027730, symSize: 0x90 }
  - { offsetInCU: 0xE6A1, offset: 0x3852A, size: 0x8, addend: 0x0, symName: __ZNSt3__121__unwrap_and_dispatchB7v160006INS_10__overloadINS_11__move_loopINS_17_ClassicAlgPolicyEEENS_14__move_trivialEEENS_16reverse_iteratorIP4EdgeEESA_SA_Li0EEENS_4pairIT0_T2_EESC_T1_SD_, symObjAddr: 0x9D20, symBinAddr: 0x1000277C0, symSize: 0x210 }
  - { offsetInCU: 0xE730, offset: 0x385B9, size: 0x8, addend: 0x0, symName: __ZNSt3__114__unwrap_rangeB7v160006INS_16reverse_iteratorIP4EdgeEES4_EENS_4pairIT0_S6_EET_S8_, symObjAddr: 0x9F30, symBinAddr: 0x1000279D0, symSize: 0x90 }
  - { offsetInCU: 0xE850, offset: 0x386D9, size: 0x8, addend: 0x0, symName: __ZNSt3__113__unwrap_iterB7v160006INS_16reverse_iteratorIP4EdgeEENS_18__unwrap_iter_implIS4_Lb0EEELi0EEEDTclsrT0_8__unwrapclsr3stdE7declvalIT_EEEES8_, symObjAddr: 0xA070, symBinAddr: 0x100027B10, symSize: 0x40 }
  - { offsetInCU: 0xE894, offset: 0x3871D, size: 0x8, addend: 0x0, symName: __ZNSt3__19make_pairB7v160006INS_16reverse_iteratorIP4EdgeEES4_EENS_4pairINS_18__unwrap_ref_decayIT_E4typeENS6_IT0_E4typeEEEOS7_OSA_, symObjAddr: 0xA0B0, symBinAddr: 0x100027B50, symSize: 0x30 }
  - { offsetInCU: 0xE8E3, offset: 0x3876C, size: 0x8, addend: 0x0, symName: __ZNSt3__114__rewrap_rangeB7v160006INS_16reverse_iteratorIP4EdgeEES4_EET_S5_T0_, symObjAddr: 0xA0E0, symBinAddr: 0x100027B80, symSize: 0x60 }
  - { offsetInCU: 0xE92F, offset: 0x387B8, size: 0x8, addend: 0x0, symName: __ZNSt3__113__rewrap_iterB7v160006INS_16reverse_iteratorIP4EdgeEES4_NS_18__unwrap_iter_implIS4_Lb0EEEEET_S7_T0_, symObjAddr: 0xA140, symBinAddr: 0x100027BE0, symSize: 0x70 }
  - { offsetInCU: 0xE984, offset: 0x3880D, size: 0x8, addend: 0x0, symName: __ZNSt3__1neB7v160006IP4EdgeS2_EEbRKNS_16reverse_iteratorIT_EERKNS3_IT0_EE, symObjAddr: 0xA1B0, symBinAddr: 0x100027C50, symSize: 0x40 }
  - { offsetInCU: 0xEA3C, offset: 0x388C5, size: 0x8, addend: 0x0, symName: __ZNSt3__122__make_exception_guardB7v160006INS_6vectorI7GMatrixNS_9allocatorIS2_EEE16__destroy_vectorEEENS_28__exception_guard_exceptionsIT_EES8_, symObjAddr: 0xA880, symBinAddr: 0x100028320, symSize: 0x40 }
  - { offsetInCU: 0xEA71, offset: 0x388FA, size: 0x8, addend: 0x0, symName: __ZNSt3__119__debug_db_insert_cB7v160006INS_6vectorI7GMatrixNS_9allocatorIS2_EEEEEEvPT_, symObjAddr: 0xA8F0, symBinAddr: 0x100028390, symSize: 0x10 }
  - { offsetInCU: 0xEAA2, offset: 0x3892B, size: 0x8, addend: 0x0, symName: __ZNSt3__119__allocate_at_leastB7v160006INS_9allocatorI7GMatrixEEEENS_19__allocation_resultINS_16allocator_traitsIT_E7pointerEEERS6_m, symObjAddr: 0xAC70, symBinAddr: 0x100028710, symSize: 0x40 }
  - { offsetInCU: 0xEAE5, offset: 0x3896E, size: 0x8, addend: 0x0, symName: __ZNSt3__112__to_addressB7v160006I7GMatrixEEPT_S3_, symObjAddr: 0xAF50, symBinAddr: 0x1000289F0, symSize: 0x10 }
  - { offsetInCU: 0xEB1A, offset: 0x389A3, size: 0x8, addend: 0x0, symName: __ZNSt3__130__uninitialized_allocator_copyB7v160006INS_9allocatorI7GMatrixEES2_S2_LPv0EEEPT0_RT_PKS5_SA_S6_, symObjAddr: 0xAFE0, symBinAddr: 0x100028A80, symSize: 0x30 }
  - { offsetInCU: 0xEB93, offset: 0x38A1C, size: 0x8, addend: 0x0, symName: __ZNSt3__14copyB7v160006IPK7GMatrixPS1_EET0_T_S6_S5_, symObjAddr: 0xB070, symBinAddr: 0x100028B10, symSize: 0x40 }
  - { offsetInCU: 0xEBED, offset: 0x38A76, size: 0x8, addend: 0x0, symName: __ZNSt3__16__copyB7v160006INS_17_ClassicAlgPolicyEPK7GMatrixS4_PS2_EENS_4pairIT0_T2_EES7_T1_S8_, symObjAddr: 0xB0B0, symBinAddr: 0x100028B50, symSize: 0x40 }
  - { offsetInCU: 0xEC59, offset: 0x38AE2, size: 0x8, addend: 0x0, symName: __ZNSt3__123__dispatch_copy_or_moveB7v160006INS_17_ClassicAlgPolicyENS_11__copy_loopIS1_EENS_14__copy_trivialEPK7GMatrixS7_PS5_EENS_4pairIT2_T4_EESA_T3_SB_, symObjAddr: 0xB0F0, symBinAddr: 0x100028B90, symSize: 0x40 }
  - { offsetInCU: 0xECD7, offset: 0x38B60, size: 0x8, addend: 0x0, symName: __ZNSt3__121__unwrap_and_dispatchB7v160006INS_10__overloadINS_11__copy_loopINS_17_ClassicAlgPolicyEEENS_14__copy_trivialEEEPK7GMatrixS9_PS7_Li0EEENS_4pairIT0_T2_EESC_T1_SD_, symObjAddr: 0xB130, symBinAddr: 0x100028BD0, symSize: 0xB0 }
  - { offsetInCU: 0xED66, offset: 0x38BEF, size: 0x8, addend: 0x0, symName: __ZNSt3__114__unwrap_rangeB7v160006IPK7GMatrixS3_EENS_4pairIT0_S5_EET_S7_, symObjAddr: 0xB1E0, symBinAddr: 0x100028C80, symSize: 0x50 }
  - { offsetInCU: 0xEEFB, offset: 0x38D84, size: 0x8, addend: 0x0, symName: __ZNSt3__113__unwrap_iterB7v160006IP7GMatrixNS_18__unwrap_iter_implIS2_Lb1EEELi0EEEDTclsrT0_8__unwrapclsr3stdE7declvalIT_EEEES6_, symObjAddr: 0xB270, symBinAddr: 0x100028D10, symSize: 0x20 }
  - { offsetInCU: 0xEF3F, offset: 0x38DC8, size: 0x8, addend: 0x0, symName: __ZNSt3__19make_pairB7v160006IPK7GMatrixPS1_EENS_4pairINS_18__unwrap_ref_decayIT_E4typeENS6_IT0_E4typeEEEOS7_OSA_, symObjAddr: 0xB290, symBinAddr: 0x100028D30, symSize: 0x30 }
  - { offsetInCU: 0xEF8E, offset: 0x38E17, size: 0x8, addend: 0x0, symName: __ZNSt3__114__rewrap_rangeB7v160006IPK7GMatrixS3_EET_S4_T0_, symObjAddr: 0xB2C0, symBinAddr: 0x100028D60, symSize: 0x30 }
  - { offsetInCU: 0xEFDA, offset: 0x38E63, size: 0x8, addend: 0x0, symName: __ZNSt3__113__rewrap_iterB7v160006IP7GMatrixS2_NS_18__unwrap_iter_implIS2_Lb1EEEEET_S5_T0_, symObjAddr: 0xB2F0, symBinAddr: 0x100028D90, symSize: 0x40 }
  - { offsetInCU: 0xF02F, offset: 0x38EB8, size: 0x8, addend: 0x0, symName: __ZNSt3__19make_pairB7v160006IPK7GMatrixS3_EENS_4pairINS_18__unwrap_ref_decayIT_E4typeENS5_IT0_E4typeEEEOS6_OS9_, symObjAddr: 0xB330, symBinAddr: 0x100028DD0, symSize: 0x30 }
  - { offsetInCU: 0xF07E, offset: 0x38F07, size: 0x8, addend: 0x0, symName: __ZNSt3__113__unwrap_iterB7v160006IPK7GMatrixNS_18__unwrap_iter_implIS3_Lb1EEELi0EEEDTclsrT0_8__unwrapclsr3stdE7declvalIT_EEEES7_, symObjAddr: 0xB360, symBinAddr: 0x100028E00, symSize: 0x20 }
  - { offsetInCU: 0xF1E9, offset: 0x39072, size: 0x8, addend: 0x0, symName: __ZNSt3__112__to_addressB7v160006IK7GMatrixEEPT_S4_, symObjAddr: 0xB400, symBinAddr: 0x100028EA0, symSize: 0x10 }
  - { offsetInCU: 0xF21E, offset: 0x390A7, size: 0x8, addend: 0x0, symName: __ZNSt3__119__copy_trivial_implB7v160006IK7GMatrixS1_EENS_4pairIPT_PT0_EES5_S5_S7_, symObjAddr: 0xB410, symBinAddr: 0x100028EB0, symSize: 0x90 }
  - { offsetInCU: 0xF286, offset: 0x3910F, size: 0x8, addend: 0x0, symName: __ZNSt3__19make_pairB7v160006IRPK7GMatrixPS1_EENS_4pairINS_18__unwrap_ref_decayIT_E4typeENS7_IT0_E4typeEEEOS8_OSB_, symObjAddr: 0xB4A0, symBinAddr: 0x100028F40, symSize: 0x30 }
  - { offsetInCU: 0xF328, offset: 0x391B1, size: 0x8, addend: 0x0, symName: __ZNSt3__113__rewrap_iterB7v160006IPK7GMatrixS3_NS_18__unwrap_iter_implIS3_Lb1EEEEET_S6_T0_, symObjAddr: 0xB5B0, symBinAddr: 0x100029050, symSize: 0x40 }
  - { offsetInCU: 0xF37D, offset: 0x39206, size: 0x8, addend: 0x0, symName: __ZNSt3__118__debug_db_erase_cB7v160006INS_6vectorI7GMatrixNS_9allocatorIS2_EEEEEEvPT_, symObjAddr: 0xB850, symBinAddr: 0x1000292F0, symSize: 0x10 }
  - { offsetInCU: 0xF3AE, offset: 0x39237, size: 0x8, addend: 0x0, symName: __ZNSt3__122__make_exception_guardB7v160006INS_6vectorI6GPointNS_9allocatorIS2_EEE16__destroy_vectorEEENS_28__exception_guard_exceptionsIT_EES8_, symObjAddr: 0xBCD0, symBinAddr: 0x100029730, symSize: 0x40 }
  - { offsetInCU: 0xF3E3, offset: 0x3926C, size: 0x8, addend: 0x0, symName: __ZNSt3__122__make_exception_guardB7v160006INS_6vectorIN5GPath4VerbENS_9allocatorIS3_EEE16__destroy_vectorEEENS_28__exception_guard_exceptionsIT_EES9_, symObjAddr: 0xCDE0, symBinAddr: 0x1000299E0, symSize: 0x40 }
  - { offsetInCU: 0xF419, offset: 0x392A2, size: 0x8, addend: 0x0, symName: __ZNSt3__127__throw_bad_optional_accessB7v160006Ev, symObjAddr: 0xDDE0, symBinAddr: 0x100029B40, symSize: 0x40 }
  - { offsetInCU: 0xF431, offset: 0x392BA, size: 0x8, addend: 0x0, symName: __ZNSt3__119__debug_db_insert_cB7v160006INS_6vectorI4EdgeNS_9allocatorIS2_EEEEEEvPT_, symObjAddr: 0xE040, symBinAddr: 0x100029D90, symSize: 0x10 }
  - { offsetInCU: 0xF462, offset: 0x392EB, size: 0x8, addend: 0x0, symName: __ZNSt3__118__debug_db_erase_cB7v160006INS_6vectorI4EdgeNS_9allocatorIS2_EEEEEEvPT_, symObjAddr: 0xE200, symBinAddr: 0x100029F50, symSize: 0x10 }
  - { offsetInCU: 0xF493, offset: 0x3931C, size: 0x8, addend: 0x0, symName: '__ZNSt3__111__sort_implB7v160006INS_17_ClassicAlgPolicyENS_11__wrap_iterIP4EdgeEEZN8MyCanvas17drawConvexPolygonEPK6GPointiRK6GPaintE3$_0EEvT0_SE_RT1_', symObjAddr: 0xE520, symBinAddr: 0x10002A270, symSize: 0x80 }
  - { offsetInCU: 0xF53B, offset: 0x393C4, size: 0x8, addend: 0x0, symName: __ZNSt3__123__debug_randomize_rangeB7v160006INS_17_ClassicAlgPolicyENS_11__wrap_iterIP4EdgeEES5_EEvT0_T1_, symObjAddr: 0xE5A0, symBinAddr: 0x10002A2F0, symSize: 0x10 }
  - { offsetInCU: 0xF58C, offset: 0x39415, size: 0x8, addend: 0x0, symName: '__ZNSt3__16__sortIRZN8MyCanvas17drawConvexPolygonEPK6GPointiRK6GPaintE3$_0P4EdgeEEvT0_SC_T_', symObjAddr: 0xE5B0, symBinAddr: 0x10002A300, symSize: 0x70 }
  - { offsetInCU: 0xF61D, offset: 0x394A6, size: 0x8, addend: 0x0, symName: __ZNSt3__113__unwrap_iterB7v160006INS_11__wrap_iterIP4EdgeEENS_18__unwrap_iter_implIS4_Lb1EEELi0EEEDTclsrT0_8__unwrapclsr3stdE7declvalIT_EEEES8_, symObjAddr: 0xE620, symBinAddr: 0x10002A370, symSize: 0x30 }
  - { offsetInCU: 0xF661, offset: 0x394EA, size: 0x8, addend: 0x0, symName: __ZNSt3__17__log2iB7v160006IlEET_S1_, symObjAddr: 0xE650, symBinAddr: 0x10002A3A0, symSize: 0x50 }
  - { offsetInCU: 0xF6CC, offset: 0x39555, size: 0x8, addend: 0x0, symName: __ZNSt3__112__libcpp_clzB7v160006Em, symObjAddr: 0xED60, symBinAddr: 0x10002AAB0, symSize: 0x20 }
  - { offsetInCU: 0xF6F8, offset: 0x39581, size: 0x8, addend: 0x0, symName: '__ZNSt3__124__sort3_maybe_branchlessB7v160006INS_17_ClassicAlgPolicyERZN8MyCanvas17drawConvexPolygonEPK6GPointiRK6GPaintE3$_0P4EdgeEENS_9enable_ifIXntsr21__use_branchless_sortIT0_T1_EE5valueEvE4typeESF_SF_SF_SE_', symObjAddr: 0xEDE0, symBinAddr: 0x10002AB30, symSize: 0x40 }
  - { offsetInCU: 0xF769, offset: 0x395F2, size: 0x8, addend: 0x0, symName: '__ZNSt3__124__sort4_maybe_branchlessB7v160006INS_17_ClassicAlgPolicyERZN8MyCanvas17drawConvexPolygonEPK6GPointiRK6GPaintE3$_0P4EdgeEENS_9enable_ifIXntsr21__use_branchless_sortIT0_T1_EE5valueEvE4typeESF_SF_SF_SF_SE_', symObjAddr: 0xEE20, symBinAddr: 0x10002AB70, symSize: 0x40 }
  - { offsetInCU: 0xF7EF, offset: 0x39678, size: 0x8, addend: 0x0, symName: '__ZNSt3__124__sort5_maybe_branchlessB7v160006INS_17_ClassicAlgPolicyERZN8MyCanvas17drawConvexPolygonEPK6GPointiRK6GPaintE3$_0P4EdgeEENS_9enable_ifIXntsr21__use_branchless_sortIT0_T1_EE5valueEvE4typeESF_SF_SF_SF_SF_SE_', symObjAddr: 0xEE60, symBinAddr: 0x10002ABB0, symSize: 0x50 }
  - { offsetInCU: 0xF884, offset: 0x3970D, size: 0x8, addend: 0x0, symName: '__ZNSt3__114__partial_sortB7v160006INS_17_ClassicAlgPolicyERZN8MyCanvas17drawConvexPolygonEPK6GPointiRK6GPaintE3$_0P4EdgeSC_EET1_SD_SD_T2_RT0_', symObjAddr: 0xF000, symBinAddr: 0x10002AD50, symSize: 0x90 }
  - { offsetInCU: 0xF90C, offset: 0x39795, size: 0x8, addend: 0x0, symName: '__ZNSt3__119__sort5_wrap_policyB7v160006INS_17_ClassicAlgPolicyERZN8MyCanvas17drawConvexPolygonEPK6GPointiRK6GPaintE3$_0P4EdgeEEjT1_SD_SD_SD_SD_T0_', symObjAddr: 0xF090, symBinAddr: 0x10002ADE0, symSize: 0x50 }
  - { offsetInCU: 0xF9B2, offset: 0x3983B, size: 0x8, addend: 0x0, symName: '__ZNSt3__17__sort3B7v160006INS_17_ClassicAlgPolicyERZN8MyCanvas17drawConvexPolygonEPK6GPointiRK6GPaintE3$_0P4EdgeEEjT1_SD_SD_T0_', symObjAddr: 0xF0E0, symBinAddr: 0x10002AE30, symSize: 0x140 }
  - { offsetInCU: 0xFA31, offset: 0x398BA, size: 0x8, addend: 0x0, symName: __ZNSt3__19iter_swapB7v160006IP4EdgeS2_EEvT_T0_, symObjAddr: 0xF4F0, symBinAddr: 0x10002B240, symSize: 0x30 }
  - { offsetInCU: 0xFA79, offset: 0x39902, size: 0x8, addend: 0x0, symName: __ZNSt3__14swapB7v160006I4EdgeEENS_9enable_ifIXaasr21is_move_constructibleIT_EE5valuesr18is_move_assignableIS3_EE5valueEvE4typeERS3_S6_, symObjAddr: 0xF520, symBinAddr: 0x10002B270, symSize: 0x70 }
  - { offsetInCU: 0xFACA, offset: 0x39953, size: 0x8, addend: 0x0, symName: '__ZNSt3__17__sort4B7v160006INS_17_ClassicAlgPolicyERZN8MyCanvas17drawConvexPolygonEPK6GPointiRK6GPaintE3$_0P4EdgeEEjT1_SD_SD_SD_T0_', symObjAddr: 0xF590, symBinAddr: 0x10002B2E0, symSize: 0xF0 }
  - { offsetInCU: 0xFB57, offset: 0x399E0, size: 0x8, addend: 0x0, symName: __ZNSt3__123__debug_randomize_rangeB7v160006INS_17_ClassicAlgPolicyEP4EdgeS3_EEvT0_T1_, symObjAddr: 0xF6D0, symBinAddr: 0x10002B420, symSize: 0x10 }
  - { offsetInCU: 0xFBA8, offset: 0x39A31, size: 0x8, addend: 0x0, symName: '__ZNSt3__119__partial_sort_implB7v160006INS_17_ClassicAlgPolicyERZN8MyCanvas17drawConvexPolygonEPK6GPointiRK6GPaintE3$_0P4EdgeSC_EET1_SD_SD_T2_OT0_', symObjAddr: 0xF6E0, symBinAddr: 0x10002B430, symSize: 0x100 }
  - { offsetInCU: 0xFC3E, offset: 0x39AC7, size: 0x8, addend: 0x0, symName: '__ZNSt3__111__make_heapB7v160006INS_17_ClassicAlgPolicyERZN8MyCanvas17drawConvexPolygonEPK6GPointiRK6GPaintE3$_0P4EdgeEEvT1_SD_OT0_', symObjAddr: 0xF7E0, symBinAddr: 0x10002B530, symSize: 0xA0 }
  - { offsetInCU: 0xFCE0, offset: 0x39B69, size: 0x8, addend: 0x0, symName: '__ZNSt3__111__sort_heapB7v160006INS_17_ClassicAlgPolicyERZN8MyCanvas17drawConvexPolygonEPK6GPointiRK6GPaintE3$_0P4EdgeEEvT1_SD_OT0_', symObjAddr: 0xFA90, symBinAddr: 0x10002B7E0, symSize: 0x80 }
  - { offsetInCU: 0xFD74, offset: 0x39BFD, size: 0x8, addend: 0x0, symName: '__ZNSt3__110__pop_heapB7v160006INS_17_ClassicAlgPolicyEZN8MyCanvas17drawConvexPolygonEPK6GPointiRK6GPaintE3$_0P4EdgeEEvT1_SC_RT0_NS_15iterator_traitsISC_E15difference_typeE', symObjAddr: 0xFB10, symBinAddr: 0x10002B860, symSize: 0x130 }
  - { offsetInCU: 0xFE25, offset: 0x39CAE, size: 0x8, addend: 0x0, symName: '__ZNSt3__19__sift_upB7v160006INS_17_ClassicAlgPolicyERZN8MyCanvas17drawConvexPolygonEPK6GPointiRK6GPaintE3$_0P4EdgeEEvT1_SD_OT0_NS_15iterator_traitsISD_E15difference_typeE', symObjAddr: 0xFD50, symBinAddr: 0x10002BAA0, symSize: 0x140 }
  - { offsetInCU: 0xFED5, offset: 0x39D5E, size: 0x8, addend: 0x0, symName: '__ZNSt3__17__sort5IRZN8MyCanvas17drawConvexPolygonEPK6GPointiRK6GPaintE3$_0P4EdgeEEjT0_SC_SC_SC_SC_T_', symObjAddr: 0xFE90, symBinAddr: 0x10002BBE0, symSize: 0x140 }
  - { offsetInCU: 0xFFD3, offset: 0x39E5C, size: 0x8, addend: 0x0, symName: __ZNSt3__112__to_addressB7v160006INS_11__wrap_iterIP4EdgeEEvEENS_5decayIDTclsr19__to_address_helperIT_EE6__callclsr3stdE7declvalIRKS6_EEEEE4typeES8_, symObjAddr: 0xFFF0, symBinAddr: 0x10002BD40, symSize: 0x20 }
  - { offsetInCU: 0x100B2, offset: 0x39F3B, size: 0x8, addend: 0x0, symName: __ZNSt3__122__make_exception_guardB7v160006INS_6vectorI4EdgeNS_9allocatorIS2_EEE16__destroy_vectorEEENS_28__exception_guard_exceptionsIT_EES8_, symObjAddr: 0x101C0, symBinAddr: 0x10002BF10, symSize: 0x40 }
  - { offsetInCU: 0x100E7, offset: 0x39F70, size: 0x8, addend: 0x0, symName: __ZNSt3__130__uninitialized_allocator_copyB7v160006INS_9allocatorI4EdgeEEPS2_S4_S4_EET2_RT_T0_T1_S5_, symObjAddr: 0x10410, symBinAddr: 0x10002C160, symSize: 0x100 }
  - { offsetInCU: 0x10185, offset: 0x3A00E, size: 0x8, addend: 0x0, symName: __ZNSt3__122__make_exception_guardB7v160006INS_29_AllocatorDestroyRangeReverseINS_9allocatorI4EdgeEEPS3_EEEENS_28__exception_guard_exceptionsIT_EES8_, symObjAddr: 0x10510, symBinAddr: 0x10002C260, symSize: 0x60 }
  - { offsetInCU: 0x101BA, offset: 0x3A043, size: 0x8, addend: 0x0, symName: __ZNSt3__119__allocator_destroyB7v160006INS_9allocatorI4EdgeEENS_16reverse_iteratorIPS2_EES6_EEvRT_T0_T1_, symObjAddr: 0x107A0, symBinAddr: 0x10002C4F0, symSize: 0x70 }
  - { offsetInCU: 0x1021D, offset: 0x3A0A6, size: 0x8, addend: 0x0, symName: __ZNSt3__112__to_addressB7v160006INS_16reverse_iteratorIP4EdgeEEvEENS_5decayIDTclsr19__to_address_helperIT_EE6__callclsr3stdE7declvalIRKS6_EEEEE4typeES8_, symObjAddr: 0x10810, symBinAddr: 0x10002C560, symSize: 0x20 }
  - { offsetInCU: 0x1027C, offset: 0x3A105, size: 0x8, addend: 0x0, symName: __ZNSt3__130__uninitialized_allocator_copyB7v160006INS_9allocatorI7GMatrixEEPS2_S4_S4_EET2_RT_T0_T1_S5_, symObjAddr: 0x10B00, symBinAddr: 0x10002C850, symSize: 0x100 }
  - { offsetInCU: 0x1031A, offset: 0x3A1A3, size: 0x8, addend: 0x0, symName: __ZNSt3__122__make_exception_guardB7v160006INS_29_AllocatorDestroyRangeReverseINS_9allocatorI7GMatrixEEPS3_EEEENS_28__exception_guard_exceptionsIT_EES8_, symObjAddr: 0x10C00, symBinAddr: 0x10002C950, symSize: 0x60 }
  - { offsetInCU: 0x1034F, offset: 0x3A1D8, size: 0x8, addend: 0x0, symName: __ZNSt3__119__allocator_destroyB7v160006INS_9allocatorI7GMatrixEENS_16reverse_iteratorIPS2_EES6_EEvRT_T0_T1_, symObjAddr: 0x10E90, symBinAddr: 0x10002CBE0, symSize: 0x70 }
  - { offsetInCU: 0x103B2, offset: 0x3A23B, size: 0x8, addend: 0x0, symName: __ZNSt3__1neB7v160006IP7GMatrixS2_EEbRKNS_16reverse_iteratorIT_EERKNS3_IT0_EE, symObjAddr: 0x10F30, symBinAddr: 0x10002CC80, symSize: 0x40 }
  - { offsetInCU: 0x103FE, offset: 0x3A287, size: 0x8, addend: 0x0, symName: __ZNSt3__112__to_addressB7v160006INS_16reverse_iteratorIP7GMatrixEEvEENS_5decayIDTclsr19__to_address_helperIT_EE6__callclsr3stdE7declvalIRKS6_EEEEE4typeES8_, symObjAddr: 0x10F70, symBinAddr: 0x10002CCC0, symSize: 0x20 }
  - { offsetInCU: 0x1045D, offset: 0x3A2E6, size: 0x8, addend: 0x0, symName: __ZNSt3__142__uninitialized_allocator_move_if_noexceptB7v160006INS_9allocatorI7GMatrixEENS_16reverse_iteratorIPS2_EES6_S2_vEET1_RT_T0_SA_S7_, symObjAddr: 0x11750, symBinAddr: 0x10002D4A0, symSize: 0x70 }
  - { offsetInCU: 0x104DA, offset: 0x3A363, size: 0x8, addend: 0x0, symName: __ZNSt3__14swapB7v160006IP7GMatrixEENS_9enable_ifIXaasr21is_move_constructibleIT_EE5valuesr18is_move_assignableIS4_EE5valueEvE4typeERS4_S7_, symObjAddr: 0x117C0, symBinAddr: 0x10002D510, symSize: 0x40 }
  - { offsetInCU: 0x1052B, offset: 0x3A3B4, size: 0x8, addend: 0x0, symName: __ZNSt3__125__debug_db_invalidate_allB7v160006INS_6vectorI7GMatrixNS_9allocatorIS2_EEEEEEvPT_, symObjAddr: 0x11800, symBinAddr: 0x10002D550, symSize: 0x10 }
  - { offsetInCU: 0x1055C, offset: 0x3A3E5, size: 0x8, addend: 0x0, symName: __ZNSt3__14moveB7v160006INS_16reverse_iteratorIP7GMatrixEES4_EET0_T_S6_S5_, symObjAddr: 0x11810, symBinAddr: 0x10002D560, symSize: 0x80 }
  - { offsetInCU: 0x105B6, offset: 0x3A43F, size: 0x8, addend: 0x0, symName: __ZNSt3__16__moveB7v160006INS_17_ClassicAlgPolicyENS_16reverse_iteratorIP7GMatrixEES5_S5_EENS_4pairIT0_T2_EES7_T1_S8_, symObjAddr: 0x11890, symBinAddr: 0x10002D5E0, symSize: 0x90 }
  - { offsetInCU: 0x10622, offset: 0x3A4AB, size: 0x8, addend: 0x0, symName: __ZNSt3__123__dispatch_copy_or_moveB7v160006INS_17_ClassicAlgPolicyENS_11__move_loopIS1_EENS_14__move_trivialENS_16reverse_iteratorIP7GMatrixEES8_S8_EENS_4pairIT2_T4_EESA_T3_SB_, symObjAddr: 0x11920, symBinAddr: 0x10002D670, symSize: 0x90 }
  - { offsetInCU: 0x106A0, offset: 0x3A529, size: 0x8, addend: 0x0, symName: __ZNSt3__121__unwrap_and_dispatchB7v160006INS_10__overloadINS_11__move_loopINS_17_ClassicAlgPolicyEEENS_14__move_trivialEEENS_16reverse_iteratorIP7GMatrixEESA_SA_Li0EEENS_4pairIT0_T2_EESC_T1_SD_, symObjAddr: 0x119B0, symBinAddr: 0x10002D700, symSize: 0x210 }
  - { offsetInCU: 0x1072F, offset: 0x3A5B8, size: 0x8, addend: 0x0, symName: __ZNSt3__114__unwrap_rangeB7v160006INS_16reverse_iteratorIP7GMatrixEES4_EENS_4pairIT0_S6_EET_S8_, symObjAddr: 0x11BC0, symBinAddr: 0x10002D910, symSize: 0x90 }
  - { offsetInCU: 0x1084F, offset: 0x3A6D8, size: 0x8, addend: 0x0, symName: __ZNSt3__113__unwrap_iterB7v160006INS_16reverse_iteratorIP7GMatrixEENS_18__unwrap_iter_implIS4_Lb0EEELi0EEEDTclsrT0_8__unwrapclsr3stdE7declvalIT_EEEES8_, symObjAddr: 0x11D00, symBinAddr: 0x10002DA50, symSize: 0x40 }
  - { offsetInCU: 0x10893, offset: 0x3A71C, size: 0x8, addend: 0x0, symName: __ZNSt3__19make_pairB7v160006INS_16reverse_iteratorIP7GMatrixEES4_EENS_4pairINS_18__unwrap_ref_decayIT_E4typeENS6_IT0_E4typeEEEOS7_OSA_, symObjAddr: 0x11D40, symBinAddr: 0x10002DA90, symSize: 0x30 }
  - { offsetInCU: 0x108E2, offset: 0x3A76B, size: 0x8, addend: 0x0, symName: __ZNSt3__114__rewrap_rangeB7v160006INS_16reverse_iteratorIP7GMatrixEES4_EET_S5_T0_, symObjAddr: 0x11D70, symBinAddr: 0x10002DAC0, symSize: 0x60 }
  - { offsetInCU: 0x1092E, offset: 0x3A7B7, size: 0x8, addend: 0x0, symName: __ZNSt3__113__rewrap_iterB7v160006INS_16reverse_iteratorIP7GMatrixEES4_NS_18__unwrap_iter_implIS4_Lb0EEEEET_S7_T0_, symObjAddr: 0x11DD0, symBinAddr: 0x10002DB20, symSize: 0x70 }
  - { offsetInCU: 0x109EF, offset: 0x3A878, size: 0x8, addend: 0x0, symName: __ZNSt3__1miB7v160006IPK7GMatrixS3_EEDTmicldtfp_4baseEcldtfp0_4baseEERKNS_11__wrap_iterIT_EERKNS5_IT0_EE, symObjAddr: 0x12170, symBinAddr: 0x10002DEC0, symSize: 0x40 }
  - { offsetInCU: 0x10A3B, offset: 0x3A8C4, size: 0x8, addend: 0x0, symName: __ZNSt3__14moveB7v160006IP7GMatrixS2_EET0_T_S4_S3_, symObjAddr: 0x12240, symBinAddr: 0x10002DF90, symSize: 0x40 }
  - { offsetInCU: 0x10A95, offset: 0x3A91E, size: 0x8, addend: 0x0, symName: __ZNSt3__16__moveB7v160006INS_17_ClassicAlgPolicyEP7GMatrixS3_S3_EENS_4pairIT0_T2_EES5_T1_S6_, symObjAddr: 0x12400, symBinAddr: 0x10002E150, symSize: 0x40 }
  - { offsetInCU: 0x10B01, offset: 0x3A98A, size: 0x8, addend: 0x0, symName: __ZNSt3__123__dispatch_copy_or_moveB7v160006INS_17_ClassicAlgPolicyENS_11__move_loopIS1_EENS_14__move_trivialEP7GMatrixS6_S6_EENS_4pairIT2_T4_EES8_T3_S9_, symObjAddr: 0x12440, symBinAddr: 0x10002E190, symSize: 0x40 }
  - { offsetInCU: 0x10B7F, offset: 0x3AA08, size: 0x8, addend: 0x0, symName: __ZNSt3__121__unwrap_and_dispatchB7v160006INS_10__overloadINS_11__move_loopINS_17_ClassicAlgPolicyEEENS_14__move_trivialEEEP7GMatrixS8_S8_Li0EEENS_4pairIT0_T2_EESA_T1_SB_, symObjAddr: 0x12480, symBinAddr: 0x10002E1D0, symSize: 0xB0 }
  - { offsetInCU: 0x10C0E, offset: 0x3AA97, size: 0x8, addend: 0x0, symName: __ZNSt3__114__unwrap_rangeB7v160006IP7GMatrixS2_EENS_4pairIT0_S4_EET_S6_, symObjAddr: 0x12530, symBinAddr: 0x10002E280, symSize: 0x50 }
  - { offsetInCU: 0x10DDF, offset: 0x3AC68, size: 0x8, addend: 0x0, symName: __ZNSt3__19make_pairB7v160006IP7GMatrixS2_EENS_4pairINS_18__unwrap_ref_decayIT_E4typeENS4_IT0_E4typeEEEOS5_OS8_, symObjAddr: 0x125C0, symBinAddr: 0x10002E310, symSize: 0x30 }
  - { offsetInCU: 0x10E2E, offset: 0x3ACB7, size: 0x8, addend: 0x0, symName: __ZNSt3__114__rewrap_rangeB7v160006IP7GMatrixS2_EET_S3_T0_, symObjAddr: 0x125F0, symBinAddr: 0x10002E340, symSize: 0x30 }
  - { offsetInCU: 0x10E7A, offset: 0x3AD03, size: 0x8, addend: 0x0, symName: __ZNSt3__119__copy_trivial_implB7v160006I7GMatrixS1_EENS_4pairIPT_PT0_EES4_S4_S6_, symObjAddr: 0x12620, symBinAddr: 0x10002E370, symSize: 0x90 }
  - { offsetInCU: 0x10EE2, offset: 0x3AD6B, size: 0x8, addend: 0x0, symName: __ZNSt3__19make_pairB7v160006IRP7GMatrixS2_EENS_4pairINS_18__unwrap_ref_decayIT_E4typeENS5_IT0_E4typeEEEOS6_OS9_, symObjAddr: 0x126B0, symBinAddr: 0x10002E400, symSize: 0x30 }
  - { offsetInCU: 0x10F31, offset: 0x3ADBA, size: 0x8, addend: 0x0, symName: '__ZNSt3__111__sort_implB7v160006INS_17_ClassicAlgPolicyENS_11__wrap_iterIP4EdgeEEZN8MyCanvas8drawPathERK5GPathRK6GPaintE3$_1EEvT0_SE_RT1_', symObjAddr: 0x127A0, symBinAddr: 0x10002E4F0, symSize: 0x80 }
  - { offsetInCU: 0x10FD9, offset: 0x3AE62, size: 0x8, addend: 0x0, symName: '__ZNSt3__16__sortIRZN8MyCanvas8drawPathERK5GPathRK6GPaintE3$_1P4EdgeEEvT0_SC_T_', symObjAddr: 0x12820, symBinAddr: 0x10002E570, symSize: 0x70 }
  - { offsetInCU: 0x1109E, offset: 0x3AF27, size: 0x8, addend: 0x0, symName: '__ZNSt3__124__sort3_maybe_branchlessB7v160006INS_17_ClassicAlgPolicyERZN8MyCanvas8drawPathERK5GPathRK6GPaintE3$_1P4EdgeEENS_9enable_ifIXntsr21__use_branchless_sortIT0_T1_EE5valueEvE4typeESF_SF_SF_SE_', symObjAddr: 0x12FC0, symBinAddr: 0x10002ED10, symSize: 0x40 }
  - { offsetInCU: 0x1110F, offset: 0x3AF98, size: 0x8, addend: 0x0, symName: '__ZNSt3__124__sort4_maybe_branchlessB7v160006INS_17_ClassicAlgPolicyERZN8MyCanvas8drawPathERK5GPathRK6GPaintE3$_1P4EdgeEENS_9enable_ifIXntsr21__use_branchless_sortIT0_T1_EE5valueEvE4typeESF_SF_SF_SF_SE_', symObjAddr: 0x13000, symBinAddr: 0x10002ED50, symSize: 0x40 }
  - { offsetInCU: 0x11195, offset: 0x3B01E, size: 0x8, addend: 0x0, symName: '__ZNSt3__124__sort5_maybe_branchlessB7v160006INS_17_ClassicAlgPolicyERZN8MyCanvas8drawPathERK5GPathRK6GPaintE3$_1P4EdgeEENS_9enable_ifIXntsr21__use_branchless_sortIT0_T1_EE5valueEvE4typeESF_SF_SF_SF_SF_SE_', symObjAddr: 0x13040, symBinAddr: 0x10002ED90, symSize: 0x50 }
  - { offsetInCU: 0x1122A, offset: 0x3B0B3, size: 0x8, addend: 0x0, symName: '__ZNSt3__114__partial_sortB7v160006INS_17_ClassicAlgPolicyERZN8MyCanvas8drawPathERK5GPathRK6GPaintE3$_1P4EdgeSC_EET1_SD_SD_T2_RT0_', symObjAddr: 0x131E0, symBinAddr: 0x10002EF30, symSize: 0x90 }
  - { offsetInCU: 0x112B2, offset: 0x3B13B, size: 0x8, addend: 0x0, symName: '__ZNSt3__119__sort5_wrap_policyB7v160006INS_17_ClassicAlgPolicyERZN8MyCanvas8drawPathERK5GPathRK6GPaintE3$_1P4EdgeEEjT1_SD_SD_SD_SD_T0_', symObjAddr: 0x13270, symBinAddr: 0x10002EFC0, symSize: 0x50 }
  - { offsetInCU: 0x11358, offset: 0x3B1E1, size: 0x8, addend: 0x0, symName: '__ZNSt3__17__sort3B7v160006INS_17_ClassicAlgPolicyERZN8MyCanvas8drawPathERK5GPathRK6GPaintE3$_1P4EdgeEEjT1_SD_SD_T0_', symObjAddr: 0x132C0, symBinAddr: 0x10002F010, symSize: 0x140 }
  - { offsetInCU: 0x113D7, offset: 0x3B260, size: 0x8, addend: 0x0, symName: '__ZNSt3__17__sort4B7v160006INS_17_ClassicAlgPolicyERZN8MyCanvas8drawPathERK5GPathRK6GPaintE3$_1P4EdgeEEjT1_SD_SD_SD_T0_', symObjAddr: 0x136D0, symBinAddr: 0x10002F420, symSize: 0xF0 }
  - { offsetInCU: 0x11464, offset: 0x3B2ED, size: 0x8, addend: 0x0, symName: '__ZNSt3__119__partial_sort_implB7v160006INS_17_ClassicAlgPolicyERZN8MyCanvas8drawPathERK5GPathRK6GPaintE3$_1P4EdgeSC_EET1_SD_SD_T2_OT0_', symObjAddr: 0x137C0, symBinAddr: 0x10002F510, symSize: 0x100 }
  - { offsetInCU: 0x114FA, offset: 0x3B383, size: 0x8, addend: 0x0, symName: '__ZNSt3__111__make_heapB7v160006INS_17_ClassicAlgPolicyERZN8MyCanvas8drawPathERK5GPathRK6GPaintE3$_1P4EdgeEEvT1_SD_OT0_', symObjAddr: 0x138C0, symBinAddr: 0x10002F610, symSize: 0xA0 }
  - { offsetInCU: 0x1159C, offset: 0x3B425, size: 0x8, addend: 0x0, symName: '__ZNSt3__111__sort_heapB7v160006INS_17_ClassicAlgPolicyERZN8MyCanvas8drawPathERK5GPathRK6GPaintE3$_1P4EdgeEEvT1_SD_OT0_', symObjAddr: 0x13B70, symBinAddr: 0x10002F8C0, symSize: 0x80 }
  - { offsetInCU: 0x11630, offset: 0x3B4B9, size: 0x8, addend: 0x0, symName: '__ZNSt3__110__pop_heapB7v160006INS_17_ClassicAlgPolicyEZN8MyCanvas8drawPathERK5GPathRK6GPaintE3$_1P4EdgeEEvT1_SC_RT0_NS_15iterator_traitsISC_E15difference_typeE', symObjAddr: 0x13BF0, symBinAddr: 0x10002F940, symSize: 0x130 }
  - { offsetInCU: 0x116E1, offset: 0x3B56A, size: 0x8, addend: 0x0, symName: '__ZNSt3__19__sift_upB7v160006INS_17_ClassicAlgPolicyERZN8MyCanvas8drawPathERK5GPathRK6GPaintE3$_1P4EdgeEEvT1_SD_OT0_NS_15iterator_traitsISD_E15difference_typeE', symObjAddr: 0x13E30, symBinAddr: 0x10002FB80, symSize: 0x140 }
  - { offsetInCU: 0x11791, offset: 0x3B61A, size: 0x8, addend: 0x0, symName: '__ZNSt3__17__sort5IRZN8MyCanvas8drawPathERK5GPathRK6GPaintE3$_1P4EdgeEEjT0_SC_SC_SC_SC_T_', symObjAddr: 0x13F70, symBinAddr: 0x10002FCC0, symSize: 0x140 }
  - { offsetInCU: 0x1183C, offset: 0x3B6C5, size: 0x8, addend: 0x0, symName: __ZNSt3__1miB7v160006IPK4EdgeS3_EEDTmicldtfp_4baseEcldtfp0_4baseEERKNS_11__wrap_iterIT_EERKNS5_IT0_EE, symObjAddr: 0x140B0, symBinAddr: 0x10002FE00, symSize: 0x40 }
  - { offsetInCU: 0x11888, offset: 0x3B711, size: 0x8, addend: 0x0, symName: __ZNSt3__14moveB7v160006IP4EdgeS2_EET0_T_S4_S3_, symObjAddr: 0x14120, symBinAddr: 0x10002FE70, symSize: 0x40 }
  - { offsetInCU: 0x118E2, offset: 0x3B76B, size: 0x8, addend: 0x0, symName: __ZNSt3__16__moveB7v160006INS_17_ClassicAlgPolicyEP4EdgeS3_S3_EENS_4pairIT0_T2_EES5_T1_S6_, symObjAddr: 0x14230, symBinAddr: 0x10002FF80, symSize: 0x40 }
  - { offsetInCU: 0x1194E, offset: 0x3B7D7, size: 0x8, addend: 0x0, symName: __ZNSt3__123__dispatch_copy_or_moveB7v160006INS_17_ClassicAlgPolicyENS_11__move_loopIS1_EENS_14__move_trivialEP4EdgeS6_S6_EENS_4pairIT2_T4_EES8_T3_S9_, symObjAddr: 0x14270, symBinAddr: 0x10002FFC0, symSize: 0x40 }
  - { offsetInCU: 0x119CC, offset: 0x3B855, size: 0x8, addend: 0x0, symName: __ZNSt3__121__unwrap_and_dispatchB7v160006INS_10__overloadINS_11__move_loopINS_17_ClassicAlgPolicyEEENS_14__move_trivialEEEP4EdgeS8_S8_Li0EEENS_4pairIT0_T2_EESA_T1_SB_, symObjAddr: 0x142B0, symBinAddr: 0x100030000, symSize: 0xB0 }
  - { offsetInCU: 0x11A5B, offset: 0x3B8E4, size: 0x8, addend: 0x0, symName: __ZNSt3__114__unwrap_rangeB7v160006IP4EdgeS2_EENS_4pairIT0_S4_EET_S6_, symObjAddr: 0x14360, symBinAddr: 0x1000300B0, symSize: 0x50 }
  - { offsetInCU: 0x11BAA, offset: 0x3BA33, size: 0x8, addend: 0x0, symName: __ZNSt3__113__unwrap_iterB7v160006IP4EdgeNS_18__unwrap_iter_implIS2_Lb1EEELi0EEEDTclsrT0_8__unwrapclsr3stdE7declvalIT_EEEES6_, symObjAddr: 0x143F0, symBinAddr: 0x100030140, symSize: 0x20 }
  - { offsetInCU: 0x11BEE, offset: 0x3BA77, size: 0x8, addend: 0x0, symName: __ZNSt3__19make_pairB7v160006IP4EdgeS2_EENS_4pairINS_18__unwrap_ref_decayIT_E4typeENS4_IT0_E4typeEEEOS5_OS8_, symObjAddr: 0x14410, symBinAddr: 0x100030160, symSize: 0x30 }
  - { offsetInCU: 0x11C3D, offset: 0x3BAC6, size: 0x8, addend: 0x0, symName: __ZNSt3__114__rewrap_rangeB7v160006IP4EdgeS2_EET_S3_T0_, symObjAddr: 0x14440, symBinAddr: 0x100030190, symSize: 0x30 }
  - { offsetInCU: 0x11C89, offset: 0x3BB12, size: 0x8, addend: 0x0, symName: __ZNSt3__113__rewrap_iterB7v160006IP4EdgeS2_NS_18__unwrap_iter_implIS2_Lb1EEEEET_S5_T0_, symObjAddr: 0x14470, symBinAddr: 0x1000301C0, symSize: 0x40 }
  - { offsetInCU: 0x11CDE, offset: 0x3BB67, size: 0x8, addend: 0x0, symName: __ZNSt3__119__copy_trivial_implB7v160006I4EdgeS1_EENS_4pairIPT_PT0_EES4_S4_S6_, symObjAddr: 0x144B0, symBinAddr: 0x100030200, symSize: 0x90 }
  - { offsetInCU: 0x11D46, offset: 0x3BBCF, size: 0x8, addend: 0x0, symName: __ZNSt3__19make_pairB7v160006IRP4EdgeS2_EENS_4pairINS_18__unwrap_ref_decayIT_E4typeENS5_IT0_E4typeEEEOS6_OS9_, symObjAddr: 0x14540, symBinAddr: 0x100030290, symSize: 0x30 }
  - { offsetInCU: 0x11DE8, offset: 0x3BC71, size: 0x8, addend: 0x0, symName: '__ZNSt3__111__sort_implB7v160006INS_17_ClassicAlgPolicyENS_11__wrap_iterIP4EdgeEEZN8MyCanvas8drawPathERK5GPathRK6GPaintE3$_2EEvT0_SE_RT1_', symObjAddr: 0x146B0, symBinAddr: 0x100030400, symSize: 0x80 }
  - { offsetInCU: 0x11E90, offset: 0x3BD19, size: 0x8, addend: 0x0, symName: '__ZNSt3__16__sortIRZN8MyCanvas8drawPathERK5GPathRK6GPaintE3$_2P4EdgeEEvT0_SC_T_', symObjAddr: 0x14730, symBinAddr: 0x100030480, symSize: 0x70 }
  - { offsetInCU: 0x11F55, offset: 0x3BDDE, size: 0x8, addend: 0x0, symName: '__ZNSt3__124__sort3_maybe_branchlessB7v160006INS_17_ClassicAlgPolicyERZN8MyCanvas8drawPathERK5GPathRK6GPaintE3$_2P4EdgeEENS_9enable_ifIXntsr21__use_branchless_sortIT0_T1_EE5valueEvE4typeESF_SF_SF_SE_', symObjAddr: 0x14EC0, symBinAddr: 0x100030C10, symSize: 0x40 }
  - { offsetInCU: 0x11FC6, offset: 0x3BE4F, size: 0x8, addend: 0x0, symName: '__ZNSt3__124__sort4_maybe_branchlessB7v160006INS_17_ClassicAlgPolicyERZN8MyCanvas8drawPathERK5GPathRK6GPaintE3$_2P4EdgeEENS_9enable_ifIXntsr21__use_branchless_sortIT0_T1_EE5valueEvE4typeESF_SF_SF_SF_SE_', symObjAddr: 0x14F00, symBinAddr: 0x100030C50, symSize: 0x40 }
  - { offsetInCU: 0x1204C, offset: 0x3BED5, size: 0x8, addend: 0x0, symName: '__ZNSt3__124__sort5_maybe_branchlessB7v160006INS_17_ClassicAlgPolicyERZN8MyCanvas8drawPathERK5GPathRK6GPaintE3$_2P4EdgeEENS_9enable_ifIXntsr21__use_branchless_sortIT0_T1_EE5valueEvE4typeESF_SF_SF_SF_SF_SE_', symObjAddr: 0x14F40, symBinAddr: 0x100030C90, symSize: 0x50 }
  - { offsetInCU: 0x120E1, offset: 0x3BF6A, size: 0x8, addend: 0x0, symName: '__ZNSt3__114__partial_sortB7v160006INS_17_ClassicAlgPolicyERZN8MyCanvas8drawPathERK5GPathRK6GPaintE3$_2P4EdgeSC_EET1_SD_SD_T2_RT0_', symObjAddr: 0x150E0, symBinAddr: 0x100030E30, symSize: 0x90 }
  - { offsetInCU: 0x12169, offset: 0x3BFF2, size: 0x8, addend: 0x0, symName: '__ZNSt3__119__sort5_wrap_policyB7v160006INS_17_ClassicAlgPolicyERZN8MyCanvas8drawPathERK5GPathRK6GPaintE3$_2P4EdgeEEjT1_SD_SD_SD_SD_T0_', symObjAddr: 0x15170, symBinAddr: 0x100030EC0, symSize: 0x50 }
  - { offsetInCU: 0x1220F, offset: 0x3C098, size: 0x8, addend: 0x0, symName: '__ZNSt3__17__sort3B7v160006INS_17_ClassicAlgPolicyERZN8MyCanvas8drawPathERK5GPathRK6GPaintE3$_2P4EdgeEEjT1_SD_SD_T0_', symObjAddr: 0x151C0, symBinAddr: 0x100030F10, symSize: 0x140 }
  - { offsetInCU: 0x1228E, offset: 0x3C117, size: 0x8, addend: 0x0, symName: '__ZNSt3__17__sort4B7v160006INS_17_ClassicAlgPolicyERZN8MyCanvas8drawPathERK5GPathRK6GPaintE3$_2P4EdgeEEjT1_SD_SD_SD_T0_', symObjAddr: 0x155D0, symBinAddr: 0x100031320, symSize: 0xF0 }
  - { offsetInCU: 0x1231B, offset: 0x3C1A4, size: 0x8, addend: 0x0, symName: '__ZNSt3__119__partial_sort_implB7v160006INS_17_ClassicAlgPolicyERZN8MyCanvas8drawPathERK5GPathRK6GPaintE3$_2P4EdgeSC_EET1_SD_SD_T2_OT0_', symObjAddr: 0x156C0, symBinAddr: 0x100031410, symSize: 0x100 }
  - { offsetInCU: 0x123B1, offset: 0x3C23A, size: 0x8, addend: 0x0, symName: '__ZNSt3__111__make_heapB7v160006INS_17_ClassicAlgPolicyERZN8MyCanvas8drawPathERK5GPathRK6GPaintE3$_2P4EdgeEEvT1_SD_OT0_', symObjAddr: 0x157C0, symBinAddr: 0x100031510, symSize: 0xA0 }
  - { offsetInCU: 0x12453, offset: 0x3C2DC, size: 0x8, addend: 0x0, symName: '__ZNSt3__111__sort_heapB7v160006INS_17_ClassicAlgPolicyERZN8MyCanvas8drawPathERK5GPathRK6GPaintE3$_2P4EdgeEEvT1_SD_OT0_', symObjAddr: 0x15A70, symBinAddr: 0x1000317C0, symSize: 0x80 }
  - { offsetInCU: 0x124E7, offset: 0x3C370, size: 0x8, addend: 0x0, symName: '__ZNSt3__110__pop_heapB7v160006INS_17_ClassicAlgPolicyEZN8MyCanvas8drawPathERK5GPathRK6GPaintE3$_2P4EdgeEEvT1_SC_RT0_NS_15iterator_traitsISC_E15difference_typeE', symObjAddr: 0x15AF0, symBinAddr: 0x100031840, symSize: 0x130 }
  - { offsetInCU: 0x12598, offset: 0x3C421, size: 0x8, addend: 0x0, symName: '__ZNSt3__19__sift_upB7v160006INS_17_ClassicAlgPolicyERZN8MyCanvas8drawPathERK5GPathRK6GPaintE3$_2P4EdgeEEvT1_SD_OT0_NS_15iterator_traitsISD_E15difference_typeE', symObjAddr: 0x15D30, symBinAddr: 0x100031A80, symSize: 0x140 }
  - { offsetInCU: 0x12648, offset: 0x3C4D1, size: 0x8, addend: 0x0, symName: '__ZNSt3__17__sort5IRZN8MyCanvas8drawPathERK5GPathRK6GPaintE3$_2P4EdgeEEjT0_SC_SC_SC_SC_T_', symObjAddr: 0x15E70, symBinAddr: 0x100031BC0, symSize: 0x140 }
  - { offsetInCU: 0x1368A, offset: 0x3D513, size: 0x8, addend: 0x0, symName: __ZNSt3__16vectorI6GColorNS_9allocatorIS1_EEE26__swap_out_circular_bufferERNS_14__split_bufferIS1_RS3_EE, symObjAddr: 0x70A0, symBinAddr: 0x100025050, symSize: 0x130 }
  - { offsetInCU: 0x13A3F, offset: 0x3D8C8, size: 0x8, addend: 0x0, symName: __ZNSt3__16vectorI4EdgeNS_9allocatorIS1_EEE26__swap_out_circular_bufferERNS_14__split_bufferIS1_RS3_EE, symObjAddr: 0x9350, symBinAddr: 0x100026DF0, symSize: 0x130 }
  - { offsetInCU: 0x13D01, offset: 0x3DB8A, size: 0x8, addend: 0x0, symName: __ZNSt3__16vectorI7GMatrixNS_9allocatorIS1_EEE26__swap_out_circular_bufferERNS_14__split_bufferIS1_RS3_EE, symObjAddr: 0x11410, symBinAddr: 0x10002D160, symSize: 0x130 }
  - { offsetInCU: 0x15A97, offset: 0x3F920, size: 0x8, addend: 0x0, symName: __Z9intersect5GRectRK7GBitmap, symObjAddr: 0x0, symBinAddr: 0x10001E260, symSize: 0xE0 }
  - { offsetInCU: 0x15AD2, offset: 0x3F95B, size: 0x8, addend: 0x0, symName: __ZN6GIRect4LTRBEiiii, symObjAddr: 0xE0, symBinAddr: 0x10001E340, symSize: 0x40 }
  - { offsetInCU: 0x15B1E, offset: 0x3F9A7, size: 0x8, addend: 0x0, symName: __ZL11GRoundToIntf, symObjAddr: 0x150, symBinAddr: 0x10001E3B0, symSize: 0x30 }
  - { offsetInCU: 0x15B4A, offset: 0x3F9D3, size: 0x8, addend: 0x0, symName: __Z9unpremult6GColor, symObjAddr: 0x1E0, symBinAddr: 0x10001E410, symSize: 0xA0 }
  - { offsetInCU: 0x15BAE, offset: 0x3FA37, size: 0x8, addend: 0x0, symName: __ZL15GPixel_PackARGBjjjj, symObjAddr: 0x280, symBinAddr: 0x10001E4B0, symSize: 0x130 }
  - { offsetInCU: 0x15C04, offset: 0x3FA8D, size: 0x8, addend: 0x0, symName: __Z10clear_modejj, symObjAddr: 0x3B0, symBinAddr: 0x10001E5E0, symSize: 0x30 }
  - { offsetInCU: 0x15C3E, offset: 0x3FAC7, size: 0x8, addend: 0x0, symName: __Z8src_modejj, symObjAddr: 0x3E0, symBinAddr: 0x10001E610, symSize: 0x10 }
  - { offsetInCU: 0x15C78, offset: 0x3FB01, size: 0x8, addend: 0x0, symName: __Z8dst_modejj, symObjAddr: 0x3F0, symBinAddr: 0x10001E620, symSize: 0x10 }
  - { offsetInCU: 0x15CB2, offset: 0x3FB3B, size: 0x8, addend: 0x0, symName: __Z13src_over_modejj, symObjAddr: 0x400, symBinAddr: 0x10001E630, symSize: 0x110 }
  - { offsetInCU: 0x15D94, offset: 0x3FC1D, size: 0x8, addend: 0x0, symName: __ZL11GPixel_GetAj, symObjAddr: 0x510, symBinAddr: 0x10001E740, symSize: 0x20 }
  - { offsetInCU: 0x15DC0, offset: 0x3FC49, size: 0x8, addend: 0x0, symName: __ZL11GPixel_GetRj, symObjAddr: 0x530, symBinAddr: 0x10001E760, symSize: 0x20 }
  - { offsetInCU: 0x15DEC, offset: 0x3FC75, size: 0x8, addend: 0x0, symName: __ZL11GPixel_GetGj, symObjAddr: 0x550, symBinAddr: 0x10001E780, symSize: 0x20 }
  - { offsetInCU: 0x15E18, offset: 0x3FCA1, size: 0x8, addend: 0x0, symName: __ZL11GPixel_GetBj, symObjAddr: 0x570, symBinAddr: 0x10001E7A0, symSize: 0x20 }
  - { offsetInCU: 0x15E44, offset: 0x3FCCD, size: 0x8, addend: 0x0, symName: __ZL6div255j, symObjAddr: 0x590, symBinAddr: 0x10001E7C0, symSize: 0x20 }
  - { offsetInCU: 0x15E70, offset: 0x3FCF9, size: 0x8, addend: 0x0, symName: __Z13dst_over_modejj, symObjAddr: 0x5B0, symBinAddr: 0x10001E7E0, symSize: 0x110 }
  - { offsetInCU: 0x15F52, offset: 0x3FDDB, size: 0x8, addend: 0x0, symName: __Z11src_in_modejj, symObjAddr: 0x6C0, symBinAddr: 0x10001E8F0, symSize: 0xB0 }
  - { offsetInCU: 0x1600A, offset: 0x3FE93, size: 0x8, addend: 0x0, symName: __Z11dst_in_modejj, symObjAddr: 0x770, symBinAddr: 0x10001E9A0, symSize: 0xB0 }
  - { offsetInCU: 0x160C2, offset: 0x3FF4B, size: 0x8, addend: 0x0, symName: __Z12src_out_modejj, symObjAddr: 0x820, symBinAddr: 0x10001EA50, symSize: 0xC0 }
  - { offsetInCU: 0x1617A, offset: 0x40003, size: 0x8, addend: 0x0, symName: __Z12dst_out_modejj, symObjAddr: 0x8E0, symBinAddr: 0x10001EB10, symSize: 0xC0 }
  - { offsetInCU: 0x16232, offset: 0x400BB, size: 0x8, addend: 0x0, symName: __Z13src_atop_modejj, symObjAddr: 0x9A0, symBinAddr: 0x10001EBD0, symSize: 0x100 }
  - { offsetInCU: 0x16314, offset: 0x4019D, size: 0x8, addend: 0x0, symName: __Z13dst_atop_modejj, symObjAddr: 0xAA0, symBinAddr: 0x10001ECD0, symSize: 0x100 }
  - { offsetInCU: 0x163F6, offset: 0x4027F, size: 0x8, addend: 0x0, symName: __Z8xor_modejj, symObjAddr: 0xBA0, symBinAddr: 0x10001EDD0, symSize: 0x160 }
  - { offsetInCU: 0x164D8, offset: 0x40361, size: 0x8, addend: 0x0, symName: __Z11fillPolygonNSt3__16vectorI4EdgeNS_9allocatorIS1_EEEE6GColorPFjjjE7GBitmap, symObjAddr: 0xD00, symBinAddr: 0x10001EF30, symSize: 0x370 }
  - { offsetInCU: 0x165DC, offset: 0x40465, size: 0x8, addend: 0x0, symName: __ZNSt3__16vectorI4EdgeNS_9allocatorIS1_EEEixB7v160006Em, symObjAddr: 0x1070, symBinAddr: 0x10001F2A0, symSize: 0x20 }
  - { offsetInCU: 0x16612, offset: 0x4049B, size: 0x8, addend: 0x0, symName: __ZNKSt3__16vectorI4EdgeNS_9allocatorIS1_EEE4sizeB7v160006Ev, symObjAddr: 0x1090, symBinAddr: 0x10001F2C0, symSize: 0x30 }
  - { offsetInCU: 0x16636, offset: 0x404BF, size: 0x8, addend: 0x0, symName: __ZN4Edge4evalEi, symObjAddr: 0x10C0, symBinAddr: 0x10001F2F0, symSize: 0x40 }
  - { offsetInCU: 0x16667, offset: 0x404F0, size: 0x8, addend: 0x0, symName: __Z7blitRowIPFjjjEEviiiT_7GBitmapj, symObjAddr: 0x1130, symBinAddr: 0x10001F360, symSize: 0x520 }
  - { offsetInCU: 0x169E5, offset: 0x4086E, size: 0x8, addend: 0x0, symName: __ZN4Edge7lastRowEi, symObjAddr: 0x1650, symBinAddr: 0x10001F880, symSize: 0x30 }
  - { offsetInCU: 0x16A17, offset: 0x408A0, size: 0x8, addend: 0x0, symName: __ZNSt3__16vectorI4EdgeNS_9allocatorIS1_EEE8pop_backEv, symObjAddr: 0x1680, symBinAddr: 0x10001F8B0, symSize: 0x30 }
  - { offsetInCU: 0x16A3E, offset: 0x408C7, size: 0x8, addend: 0x0, symName: __ZNKSt3__16vectorI4EdgeNS_9allocatorIS1_EEE5emptyB7v160006Ev, symObjAddr: 0x16B0, symBinAddr: 0x10001F8E0, symSize: 0x20 }
  - { offsetInCU: 0x16A61, offset: 0x408EA, size: 0x8, addend: 0x0, symName: __Z12getBlendModePFjjjE6GColor, symObjAddr: 0x16D0, symBinAddr: 0x10001F900, symSize: 0x1D0 }
  - { offsetInCU: 0x16AAD, offset: 0x40936, size: 0x8, addend: 0x0, symName: __Z19GCreateBitmapShaderRK7GBitmapRK7GMatrix, symObjAddr: 0x18A0, symBinAddr: 0x10001FAD0, symSize: 0x80 }
  - { offsetInCU: 0x16BFA, offset: 0x40A83, size: 0x8, addend: 0x0, symName: __ZN10MyBMShaderC1ERK7GBitmapRK7GMatrix, symObjAddr: 0x1920, symBinAddr: 0x10001FB50, symSize: 0x30 }
  - { offsetInCU: 0x16C3F, offset: 0x40AC8, size: 0x8, addend: 0x0, symName: __ZNSt3__110unique_ptrI7GShaderNS_14default_deleteIS1_EEEC1B7v160006ILb1EvEEPS1_, symObjAddr: 0x1950, symBinAddr: 0x10001FB80, symSize: 0x30 }
  - { offsetInCU: 0x16C80, offset: 0x40B09, size: 0x8, addend: 0x0, symName: __Z21GCreateLinearGradient6GPointS_PK6GColori, symObjAddr: 0x1980, symBinAddr: 0x10001FBB0, symSize: 0xA0 }
  - { offsetInCU: 0x16DE0, offset: 0x40C69, size: 0x8, addend: 0x0, symName: __ZN16MyGradientShaderC1E6GPointS0_PK6GColori, symObjAddr: 0x1A20, symBinAddr: 0x10001FC50, symSize: 0x40 }
  - { offsetInCU: 0x16E40, offset: 0x40CC9, size: 0x8, addend: 0x0, symName: __Z16shadeFillPolygonP7GShaderNSt3__16vectorI4EdgeNS1_9allocatorIS3_EEEE7GBitmapNS2_I7GMatrixNS4_IS8_EEEEPFjjjE, symObjAddr: 0x1A60, symBinAddr: 0x10001FC90, symSize: 0x400 }
  - { offsetInCU: 0x16F4B, offset: 0x40DD4, size: 0x8, addend: 0x0, symName: __Z13shadeBlendRowIPFjjjEEviiiT_7GBitmapPj, symObjAddr: 0x1E60, symBinAddr: 0x100020090, symSize: 0x590 }
  - { offsetInCU: 0x17423, offset: 0x412AC, size: 0x8, addend: 0x0, symName: __ZN8MyCanvas5clearERK6GColor, symObjAddr: 0x23F0, symBinAddr: 0x100020620, symSize: 0x100 }
  - { offsetInCU: 0x1748F, offset: 0x41318, size: 0x8, addend: 0x0, symName: __ZN8MyCanvas8drawRectERK5GRectRK6GPaint, symObjAddr: 0x24F0, symBinAddr: 0x100020720, symSize: 0xF0 }
  - { offsetInCU: 0x1751C, offset: 0x413A5, size: 0x8, addend: 0x0, symName: __ZN8MyCanvas17drawConvexPolygonEPK6GPointiRK6GPaint, symObjAddr: 0x25E0, symBinAddr: 0x100020810, symSize: 0x800 }
  - { offsetInCU: 0x17682, offset: 0x4150B, size: 0x8, addend: 0x0, symName: __ZNSt3__16vectorI7GMatrixNS_9allocatorIS1_EEEixB7v160006Em, symObjAddr: 0x2DE0, symBinAddr: 0x100021010, symSize: 0x20 }
  - { offsetInCU: 0x176B8, offset: 0x41541, size: 0x8, addend: 0x0, symName: __ZNKSt3__16vectorI7GMatrixNS_9allocatorIS1_EEE4sizeB7v160006Ev, symObjAddr: 0x2E00, symBinAddr: 0x100021030, symSize: 0x30 }
  - { offsetInCU: 0x176DC, offset: 0x41565, size: 0x8, addend: 0x0, symName: __ZNSt3__16vectorI4EdgeNS_9allocatorIS1_EEEC1B7v160006Ev, symObjAddr: 0x2E30, symBinAddr: 0x100021060, symSize: 0x20 }
  - { offsetInCU: 0x17705, offset: 0x4158E, size: 0x8, addend: 0x0, symName: __ZN4Edge4clipE6GPointS0_7GBitmapRNSt3__16vectorIS_NS2_9allocatorIS_EEEE, symObjAddr: 0x2E50, symBinAddr: 0x100021080, symSize: 0x9D0 }
  - { offsetInCU: 0x17919, offset: 0x417A2, size: 0x8, addend: 0x0, symName: __ZNSt3__16vectorI4EdgeNS_9allocatorIS1_EEE5beginB7v160006Ev, symObjAddr: 0x3860, symBinAddr: 0x100021A90, symSize: 0x30 }
  - { offsetInCU: 0x17940, offset: 0x417C9, size: 0x8, addend: 0x0, symName: __ZNSt3__16vectorI4EdgeNS_9allocatorIS1_EEE3endB7v160006Ev, symObjAddr: 0x3890, symBinAddr: 0x100021AC0, symSize: 0x30 }
  - { offsetInCU: 0x17967, offset: 0x417F0, size: 0x8, addend: 0x0, symName: __ZNK6GPaint9getShaderEv, symObjAddr: 0x38C0, symBinAddr: 0x100021AF0, symSize: 0x20 }
  - { offsetInCU: 0x1798B, offset: 0x41814, size: 0x8, addend: 0x0, symName: __ZNK6GPaint12getBlendModeEv, symObjAddr: 0x38E0, symBinAddr: 0x100021B10, symSize: 0x20 }
  - { offsetInCU: 0x179AF, offset: 0x41838, size: 0x8, addend: 0x0, symName: __ZNSt3__16vectorI4EdgeNS_9allocatorIS1_EEEC1ERKS4_, symObjAddr: 0x3900, symBinAddr: 0x100021B30, symSize: 0x30 }
  - { offsetInCU: 0x179E9, offset: 0x41872, size: 0x8, addend: 0x0, symName: __ZNSt3__16vectorI7GMatrixNS_9allocatorIS1_EEEC1ERKS4_, symObjAddr: 0x3930, symBinAddr: 0x100021B60, symSize: 0x30 }
  - { offsetInCU: 0x17A23, offset: 0x418AC, size: 0x8, addend: 0x0, symName: __ZNSt3__16vectorI7GMatrixNS_9allocatorIS1_EEED1B7v160006Ev, symObjAddr: 0x3960, symBinAddr: 0x100021B90, symSize: 0x20 }
  - { offsetInCU: 0x17A4C, offset: 0x418D5, size: 0x8, addend: 0x0, symName: __ZNSt3__16vectorI4EdgeNS_9allocatorIS1_EEED1B7v160006Ev, symObjAddr: 0x3980, symBinAddr: 0x100021BB0, symSize: 0x20 }
  - { offsetInCU: 0x17A75, offset: 0x418FE, size: 0x8, addend: 0x0, symName: __ZNK6GPaint8getColorEv, symObjAddr: 0x39A0, symBinAddr: 0x100021BD0, symSize: 0x10 }
  - { offsetInCU: 0x17A98, offset: 0x41921, size: 0x8, addend: 0x0, symName: __Z13GCreateCanvasRK7GBitmap, symObjAddr: 0x39B0, symBinAddr: 0x100021BE0, symSize: 0x80 }
  - { offsetInCU: 0x17AC5, offset: 0x4194E, size: 0x8, addend: 0x0, symName: __ZN8MyCanvasC1ERK7GBitmap, symObjAddr: 0x3A30, symBinAddr: 0x100021C60, symSize: 0x30 }
  - { offsetInCU: 0x17AFC, offset: 0x41985, size: 0x8, addend: 0x0, symName: __ZNSt3__110unique_ptrI7GCanvasNS_14default_deleteIS1_EEEC1B7v160006ILb1EvEEPS1_, symObjAddr: 0x3A60, symBinAddr: 0x100021C90, symSize: 0x30 }
  - { offsetInCU: 0x17B3E, offset: 0x419C7, size: 0x8, addend: 0x0, symName: __ZN8MyCanvas4saveEv, symObjAddr: 0x3A90, symBinAddr: 0x100021CC0, symSize: 0x70 }
  - { offsetInCU: 0x17B72, offset: 0x419FB, size: 0x8, addend: 0x0, symName: __ZNSt3__16vectorI7GMatrixNS_9allocatorIS1_EEE9push_backB7v160006ERKS1_, symObjAddr: 0x3B00, symBinAddr: 0x100021D30, symSize: 0x60 }
  - { offsetInCU: 0x17BA8, offset: 0x41A31, size: 0x8, addend: 0x0, symName: __ZN8MyCanvas7restoreEv, symObjAddr: 0x3B60, symBinAddr: 0x100021D90, symSize: 0x70 }
  - { offsetInCU: 0x17BCE, offset: 0x41A57, size: 0x8, addend: 0x0, symName: __ZNSt3__16vectorI7GMatrixNS_9allocatorIS1_EEE5eraseB7v160006ENS_11__wrap_iterIPKS1_EE, symObjAddr: 0x3BD0, symBinAddr: 0x100021E00, symSize: 0xA0 }
  - { offsetInCU: 0x17C22, offset: 0x41AAB, size: 0x8, addend: 0x0, symName: __ZNSt3__16vectorI7GMatrixNS_9allocatorIS1_EEE3endB7v160006Ev, symObjAddr: 0x3C70, symBinAddr: 0x100021EA0, symSize: 0x30 }
  - { offsetInCU: 0x17C49, offset: 0x41AD2, size: 0x8, addend: 0x0, symName: __ZNKSt3__111__wrap_iterIP7GMatrixEmiB7v160006El, symObjAddr: 0x3CA0, symBinAddr: 0x100021ED0, symSize: 0x30 }
  - { offsetInCU: 0x17C85, offset: 0x41B0E, size: 0x8, addend: 0x0, symName: __ZNSt3__111__wrap_iterIPK7GMatrixEC1B7v160006IPS1_EERKNS0_IT_EEPNS_9enable_ifIXsr14is_convertibleIS7_S3_EE5valueEvE4typeE, symObjAddr: 0x3CD0, symBinAddr: 0x100021F00, symSize: 0x30 }
  - { offsetInCU: 0x17CCF, offset: 0x41B58, size: 0x8, addend: 0x0, symName: __ZN8MyCanvas6concatERK7GMatrix, symObjAddr: 0x3D00, symBinAddr: 0x100021F30, symSize: 0x60 }
  - { offsetInCU: 0x17D11, offset: 0x41B9A, size: 0x8, addend: 0x0, symName: __ZNSt3__16vectorI7GMatrixNS_9allocatorIS1_EEE4backB7v160006Ev, symObjAddr: 0x3D60, symBinAddr: 0x100021F90, symSize: 0x20 }
  - { offsetInCU: 0x17D35, offset: 0x41BBE, size: 0x8, addend: 0x0, symName: __ZN8MyCanvas8drawPathERK5GPathRK6GPaint, symObjAddr: 0x3D80, symBinAddr: 0x100021FB0, symSize: 0xC70 }
  - { offsetInCU: 0x1800A, offset: 0x41E93, size: 0x8, addend: 0x0, symName: __ZN5GPathC1ERKS_, symObjAddr: 0x49F0, symBinAddr: 0x100022C20, symSize: 0x30 }
  - { offsetInCU: 0x1803D, offset: 0x41EC6, size: 0x8, addend: 0x0, symName: __ZNRSt3__18optionalIN5GPath4VerbEE5valueB7v160006Ev, symObjAddr: 0x4A40, symBinAddr: 0x100022C50, symSize: 0x40 }
  - { offsetInCU: 0x18061, offset: 0x41EEA, size: 0x8, addend: 0x0, symName: __ZNK4Edge7isValidEi, symObjAddr: 0x4AC0, symBinAddr: 0x100022CD0, symSize: 0x40 }
  - { offsetInCU: 0x18093, offset: 0x41F1C, size: 0x8, addend: 0x0, symName: __ZNSt3__16vectorI4EdgeNS_9allocatorIS1_EEE5eraseB7v160006ENS_11__wrap_iterIPKS1_EE, symObjAddr: 0x4B00, symBinAddr: 0x100022D10, symSize: 0xA0 }
  - { offsetInCU: 0x180E7, offset: 0x41F70, size: 0x8, addend: 0x0, symName: __ZNKSt3__111__wrap_iterIP4EdgeEplB7v160006El, symObjAddr: 0x4BA0, symBinAddr: 0x100022DB0, symSize: 0x40 }
  - { offsetInCU: 0x1812C, offset: 0x41FB5, size: 0x8, addend: 0x0, symName: __ZNSt3__111__wrap_iterIPK4EdgeEC1B7v160006IPS1_EERKNS0_IT_EEPNS_9enable_ifIXsr14is_convertibleIS7_S3_EE5valueEvE4typeE, symObjAddr: 0x4BE0, symBinAddr: 0x100022DF0, symSize: 0x30 }
  - { offsetInCU: 0x18175, offset: 0x41FFE, size: 0x8, addend: 0x0, symName: __Z14GDrawSomethingP7GCanvas5GSizeIiE, symObjAddr: 0x4C50, symBinAddr: 0x100022E60, symSize: 0x40 }
  - { offsetInCU: 0x181B8, offset: 0x42041, size: 0x8, addend: 0x0, symName: __ZNSt3__112basic_stringIcNS_11char_traitsIcEENS_9allocatorIcEEEC1B7v160006IDnEEPKc, symObjAddr: 0x4C90, symBinAddr: 0x100022EA0, symSize: 0x30 }
  - { offsetInCU: 0x181F5, offset: 0x4207E, size: 0x8, addend: 0x0, symName: __ZN8MyCanvasD1Ev, symObjAddr: 0x4CC0, symBinAddr: 0x100022ED0, symSize: 0x20 }
  - { offsetInCU: 0x1821F, offset: 0x420A8, size: 0x8, addend: 0x0, symName: __ZN8MyCanvasD0Ev, symObjAddr: 0x4CE0, symBinAddr: 0x100022EF0, symSize: 0x30 }
  - { offsetInCU: 0x18258, offset: 0x420E1, size: 0x8, addend: 0x0, symName: __ZNKSt3__16__lessIiiEclB7v160006ERKiS3_, symObjAddr: 0x4D60, symBinAddr: 0x100022F70, symSize: 0x30 }
  - { offsetInCU: 0x18298, offset: 0x42121, size: 0x8, addend: 0x0, symName: __ZN10MyBMShaderC2ERK7GBitmapRK7GMatrix, symObjAddr: 0x4DE0, symBinAddr: 0x100022FF0, symSize: 0x3A0 }
  - { offsetInCU: 0x182DD, offset: 0x42166, size: 0x8, addend: 0x0, symName: __ZN7GShaderC2Ev, symObjAddr: 0x5180, symBinAddr: 0x100023390, symSize: 0x20 }
  - { offsetInCU: 0x18307, offset: 0x42190, size: 0x8, addend: 0x0, symName: __ZNSt3__113basic_ostreamIcNS_11char_traitsIcEEElsB7v160006EPFRS3_S4_E, symObjAddr: 0x51E0, symBinAddr: 0x1000233F0, symSize: 0x20 }
  - { offsetInCU: 0x18339, offset: 0x421C2, size: 0x8, addend: 0x0, symName: __ZN7GShaderD2Ev, symObjAddr: 0x52D0, symBinAddr: 0x100023460, symSize: 0x10 }
  - { offsetInCU: 0x18362, offset: 0x421EB, size: 0x8, addend: 0x0, symName: __ZN10MyBMShaderD1Ev, symObjAddr: 0x52E0, symBinAddr: 0x100023470, symSize: 0x20 }
  - { offsetInCU: 0x1838B, offset: 0x42214, size: 0x8, addend: 0x0, symName: __ZN10MyBMShaderD0Ev, symObjAddr: 0x5300, symBinAddr: 0x100023490, symSize: 0x30 }
  - { offsetInCU: 0x183B4, offset: 0x4223D, size: 0x8, addend: 0x0, symName: __ZN10MyBMShader8isOpaqueEv, symObjAddr: 0x5330, symBinAddr: 0x1000234C0, symSize: 0x30 }
  - { offsetInCU: 0x183D8, offset: 0x42261, size: 0x8, addend: 0x0, symName: __ZN10MyBMShader10setContextERK7GMatrix, symObjAddr: 0x5360, symBinAddr: 0x1000234F0, symSize: 0xB0 }
  - { offsetInCU: 0x1842E, offset: 0x422B7, size: 0x8, addend: 0x0, symName: __ZN10MyBMShader8shadeRowEiiiPj, symObjAddr: 0x5410, symBinAddr: 0x1000235A0, symSize: 0x2D0 }
  - { offsetInCU: 0x1854F, offset: 0x423D8, size: 0x8, addend: 0x0, symName: __ZN7GShaderD1Ev, symObjAddr: 0x56E0, symBinAddr: 0x100023870, symSize: 0x10 }
  - { offsetInCU: 0x18578, offset: 0x42401, size: 0x8, addend: 0x0, symName: __ZN7GShaderD0Ev, symObjAddr: 0x56F0, symBinAddr: 0x100023880, symSize: 0x10 }
  - { offsetInCU: 0x185A1, offset: 0x4242A, size: 0x8, addend: 0x0, symName: __ZNSt3__111char_traitsIcE6lengthEPKc, symObjAddr: 0x58F0, symBinAddr: 0x100023A80, symSize: 0x30 }
  - { offsetInCU: 0x185E2, offset: 0x4246B, size: 0x8, addend: 0x0, symName: __ZNKSt3__113basic_ostreamIcNS_11char_traitsIcEEE6sentrycvbB7v160006Ev, symObjAddr: 0x5920, symBinAddr: 0x100023AB0, symSize: 0x20 }
  - { offsetInCU: 0x18606, offset: 0x4248F, size: 0x8, addend: 0x0, symName: __ZNSt3__119ostreambuf_iteratorIcNS_11char_traitsIcEEEC1B7v160006ERNS_13basic_ostreamIcS2_EE, symObjAddr: 0x5B60, symBinAddr: 0x100023CF0, symSize: 0x30 }
  - { offsetInCU: 0x1863D, offset: 0x424C6, size: 0x8, addend: 0x0, symName: __ZNKSt3__18ios_base5flagsB7v160006Ev, symObjAddr: 0x5B90, symBinAddr: 0x100023D20, symSize: 0x20 }
  - { offsetInCU: 0x18664, offset: 0x424ED, size: 0x8, addend: 0x0, symName: __ZNKSt3__19basic_iosIcNS_11char_traitsIcEEE4fillB7v160006Ev, symObjAddr: 0x5BB0, symBinAddr: 0x100023D40, symSize: 0x70 }
  - { offsetInCU: 0x1868B, offset: 0x42514, size: 0x8, addend: 0x0, symName: __ZNKSt3__119ostreambuf_iteratorIcNS_11char_traitsIcEEE6failedB7v160006Ev, symObjAddr: 0x5C20, symBinAddr: 0x100023DB0, symSize: 0x20 }
  - { offsetInCU: 0x186AF, offset: 0x42538, size: 0x8, addend: 0x0, symName: __ZNSt3__19basic_iosIcNS_11char_traitsIcEEE8setstateB7v160006Ej, symObjAddr: 0x5C40, symBinAddr: 0x100023DD0, symSize: 0x30 }
  - { offsetInCU: 0x186E2, offset: 0x4256B, size: 0x8, addend: 0x0, symName: __ZNKSt3__18ios_base5widthB7v160006Ev, symObjAddr: 0x5C80, symBinAddr: 0x100023E00, symSize: 0x20 }
  - { offsetInCU: 0x18709, offset: 0x42592, size: 0x8, addend: 0x0, symName: __ZNSt3__115basic_streambufIcNS_11char_traitsIcEEE5sputnB7v160006EPKcl, symObjAddr: 0x5CA0, symBinAddr: 0x100023E20, symSize: 0x30 }
  - { offsetInCU: 0x18749, offset: 0x425D2, size: 0x8, addend: 0x0, symName: __ZNSt3__112basic_stringIcNS_11char_traitsIcEENS_9allocatorIcEEEC1B7v160006Emc, symObjAddr: 0x5CD0, symBinAddr: 0x100023E50, symSize: 0x30 }
  - { offsetInCU: 0x18790, offset: 0x42619, size: 0x8, addend: 0x0, symName: __ZNSt3__112basic_stringIcNS_11char_traitsIcEENS_9allocatorIcEEE4dataB7v160006Ev, symObjAddr: 0x5D00, symBinAddr: 0x100023E80, symSize: 0x30 }
  - { offsetInCU: 0x187B4, offset: 0x4263D, size: 0x8, addend: 0x0, symName: __ZNSt3__18ios_base5widthB7v160006El, symObjAddr: 0x5D30, symBinAddr: 0x100023EB0, symSize: 0x30 }
  - { offsetInCU: 0x187F9, offset: 0x42682, size: 0x8, addend: 0x0, symName: __ZNSt3__112basic_stringIcNS_11char_traitsIcEENS_9allocatorIcEEEC2B7v160006Emc, symObjAddr: 0x5D60, symBinAddr: 0x100023EE0, symSize: 0x50 }
  - { offsetInCU: 0x18845, offset: 0x426CE, size: 0x8, addend: 0x0, symName: __ZNSt3__117__compressed_pairINS_12basic_stringIcNS_11char_traitsIcEENS_9allocatorIcEEE5__repES5_EC1B7v160006INS_18__default_init_tagESA_EEOT_OT0_, symObjAddr: 0x5DB0, symBinAddr: 0x100023F30, symSize: 0x30 }
  - { offsetInCU: 0x1889C, offset: 0x42725, size: 0x8, addend: 0x0, symName: __ZNSt3__117__compressed_pairINS_12basic_stringIcNS_11char_traitsIcEENS_9allocatorIcEEE5__repES5_EC2B7v160006INS_18__default_init_tagESA_EEOT_OT0_, symObjAddr: 0x5DF0, symBinAddr: 0x100023F70, symSize: 0x30 }
  - { offsetInCU: 0x188F3, offset: 0x4277C, size: 0x8, addend: 0x0, symName: __ZNSt3__122__compressed_pair_elemINS_12basic_stringIcNS_11char_traitsIcEENS_9allocatorIcEEE5__repELi0ELb0EEC2B7v160006ENS_18__default_init_tagE, symObjAddr: 0x5E20, symBinAddr: 0x100023FA0, symSize: 0x10 }
  - { offsetInCU: 0x18926, offset: 0x427AF, size: 0x8, addend: 0x0, symName: __ZNSt3__122__compressed_pair_elemINS_9allocatorIcEELi1ELb1EEC2B7v160006ENS_18__default_init_tagE, symObjAddr: 0x5E30, symBinAddr: 0x100023FB0, symSize: 0x20 }
  - { offsetInCU: 0x18959, offset: 0x427E2, size: 0x8, addend: 0x0, symName: __ZNSt3__19allocatorIcEC2B7v160006Ev, symObjAddr: 0x5E50, symBinAddr: 0x100023FD0, symSize: 0x20 }
  - { offsetInCU: 0x18982, offset: 0x4280B, size: 0x8, addend: 0x0, symName: __ZNSt3__116__non_trivial_ifILb1ENS_9allocatorIcEEEC2B7v160006Ev, symObjAddr: 0x5E70, symBinAddr: 0x100023FF0, symSize: 0x10 }
  - { offsetInCU: 0x189AB, offset: 0x42834, size: 0x8, addend: 0x0, symName: __ZNSt3__112basic_stringIcNS_11char_traitsIcEENS_9allocatorIcEEE13__get_pointerB7v160006Ev, symObjAddr: 0x5E90, symBinAddr: 0x100024010, symSize: 0x50 }
  - { offsetInCU: 0x189CF, offset: 0x42858, size: 0x8, addend: 0x0, symName: __ZNSt3__112basic_stringIcNS_11char_traitsIcEENS_9allocatorIcEEE18__get_long_pointerB7v160006Ev, symObjAddr: 0x5F10, symBinAddr: 0x100024060, symSize: 0x20 }
  - { offsetInCU: 0x189F3, offset: 0x4287C, size: 0x8, addend: 0x0, symName: __ZNSt3__112basic_stringIcNS_11char_traitsIcEENS_9allocatorIcEEE19__get_short_pointerB7v160006Ev, symObjAddr: 0x5F30, symBinAddr: 0x100024080, symSize: 0x30 }
  - { offsetInCU: 0x18A17, offset: 0x428A0, size: 0x8, addend: 0x0, symName: __ZNSt3__117__compressed_pairINS_12basic_stringIcNS_11char_traitsIcEENS_9allocatorIcEEE5__repES5_E5firstB7v160006Ev, symObjAddr: 0x5F90, symBinAddr: 0x1000240B0, symSize: 0x20 }
  - { offsetInCU: 0x18A3B, offset: 0x428C4, size: 0x8, addend: 0x0, symName: __ZNSt3__122__compressed_pair_elemINS_12basic_stringIcNS_11char_traitsIcEENS_9allocatorIcEEE5__repELi0ELb0EE5__getB7v160006Ev, symObjAddr: 0x5FB0, symBinAddr: 0x1000240D0, symSize: 0x10 }
  - { offsetInCU: 0x18A5F, offset: 0x428E8, size: 0x8, addend: 0x0, symName: __ZNSt3__114pointer_traitsIPcE10pointer_toB7v160006ERc, symObjAddr: 0x5FC0, symBinAddr: 0x1000240E0, symSize: 0x10 }
  - { offsetInCU: 0x18A82, offset: 0x4290B, size: 0x8, addend: 0x0, symName: __ZNSt3__119ostreambuf_iteratorIcNS_11char_traitsIcEEEC2B7v160006ERNS_13basic_ostreamIcS2_EE, symObjAddr: 0x5FD0, symBinAddr: 0x1000240F0, symSize: 0x50 }
  - { offsetInCU: 0x18AB9, offset: 0x42942, size: 0x8, addend: 0x0, symName: __ZNKSt3__19basic_iosIcNS_11char_traitsIcEEE5rdbufB7v160006Ev, symObjAddr: 0x6020, symBinAddr: 0x100024140, symSize: 0x20 }
  - { offsetInCU: 0x18AE0, offset: 0x42969, size: 0x8, addend: 0x0, symName: __ZNKSt3__18ios_base5rdbufB7v160006Ev, symObjAddr: 0x6040, symBinAddr: 0x100024160, symSize: 0x20 }
  - { offsetInCU: 0x18B04, offset: 0x4298D, size: 0x8, addend: 0x0, symName: __ZNSt3__111char_traitsIcE11eq_int_typeEii, symObjAddr: 0x6060, symBinAddr: 0x100024180, symSize: 0x20 }
  - { offsetInCU: 0x18B35, offset: 0x429BE, size: 0x8, addend: 0x0, symName: __ZNSt3__111char_traitsIcE3eofEv, symObjAddr: 0x6080, symBinAddr: 0x1000241A0, symSize: 0x10 }
  - { offsetInCU: 0x18B49, offset: 0x429D2, size: 0x8, addend: 0x0, symName: __ZNKSt3__19basic_iosIcNS_11char_traitsIcEEE5widenB7v160006Ec, symObjAddr: 0x6090, symBinAddr: 0x1000241B0, symSize: 0x80 }
  - { offsetInCU: 0x18BB6, offset: 0x42A3F, size: 0x8, addend: 0x0, symName: __ZNKSt3__15ctypeIcE5widenB7v160006Ec, symObjAddr: 0x6140, symBinAddr: 0x100024260, symSize: 0x30 }
  - { offsetInCU: 0x18BE9, offset: 0x42A72, size: 0x8, addend: 0x0, symName: __ZNSt3__18ios_base8setstateB7v160006Ej, symObjAddr: 0x6170, symBinAddr: 0x100024290, symSize: 0x30 }
  - { offsetInCU: 0x18C1F, offset: 0x42AA8, size: 0x8, addend: 0x0, symName: __ZN10MyBMShaderD2Ev, symObjAddr: 0x61C0, symBinAddr: 0x1000242E0, symSize: 0x70 }
  - { offsetInCU: 0x18C48, offset: 0x42AD1, size: 0x8, addend: 0x0, symName: __ZNK7GBitmap8isOpaqueEv, symObjAddr: 0x6230, symBinAddr: 0x100024350, symSize: 0x20 }
  - { offsetInCU: 0x18C6B, offset: 0x42AF4, size: 0x8, addend: 0x0, symName: __ZmlRK7GMatrixS1_, symObjAddr: 0x6250, symBinAddr: 0x100024370, symSize: 0x30 }
  - { offsetInCU: 0x18CA6, offset: 0x42B2F, size: 0x8, addend: 0x0, symName: __ZNKSt3__18optionalI7GMatrixEcvbB7v160006Ev, symObjAddr: 0x6280, symBinAddr: 0x1000243A0, symSize: 0x20 }
  - { offsetInCU: 0x18CCA, offset: 0x42B53, size: 0x8, addend: 0x0, symName: __ZNRSt3__18optionalI7GMatrixEdeB7v160006Ev, symObjAddr: 0x62A0, symBinAddr: 0x1000243C0, symSize: 0x20 }
  - { offsetInCU: 0x18CEE, offset: 0x42B77, size: 0x8, addend: 0x0, symName: __ZNKSt3__123__optional_storage_baseI7GMatrixLb0EE9has_valueB7v160006Ev, symObjAddr: 0x62C0, symBinAddr: 0x1000243E0, symSize: 0x20 }
  - { offsetInCU: 0x18D12, offset: 0x42B9B, size: 0x8, addend: 0x0, symName: __ZNRSt3__123__optional_storage_baseI7GMatrixLb0EE5__getB7v160006Ev, symObjAddr: 0x62E0, symBinAddr: 0x100024400, symSize: 0x10 }
  - { offsetInCU: 0x18D36, offset: 0x42BBF, size: 0x8, addend: 0x0, symName: __ZN10MyBMShader7clamp_yEi, symObjAddr: 0x62F0, symBinAddr: 0x100024410, symSize: 0x80 }
  - { offsetInCU: 0x18D67, offset: 0x42BF0, size: 0x8, addend: 0x0, symName: __ZL11GFloorToIntf, symObjAddr: 0x6370, symBinAddr: 0x100024490, symSize: 0x20 }
  - { offsetInCU: 0x18D94, offset: 0x42C1D, size: 0x8, addend: 0x0, symName: __ZN10MyBMShader7clamp_xEi, symObjAddr: 0x6390, symBinAddr: 0x1000244B0, symSize: 0x80 }
  - { offsetInCU: 0x18DC6, offset: 0x42C4F, size: 0x8, addend: 0x0, symName: __ZN16MyGradientShaderC2E6GPointS0_PK6GColori, symObjAddr: 0x6580, symBinAddr: 0x100024530, symSize: 0x130 }
  - { offsetInCU: 0x18E43, offset: 0x42CCC, size: 0x8, addend: 0x0, symName: __ZNSt3__16vectorI6GColorNS_9allocatorIS1_EEEC1B7v160006Ev, symObjAddr: 0x66B0, symBinAddr: 0x100024660, symSize: 0x20 }
  - { offsetInCU: 0x18E6C, offset: 0x42CF5, size: 0x8, addend: 0x0, symName: __ZNSt3__16vectorI6GColorNS_9allocatorIS1_EEE9push_backB7v160006ERKS1_, symObjAddr: 0x66D0, symBinAddr: 0x100024680, symSize: 0x60 }
  - { offsetInCU: 0x18EA2, offset: 0x42D2B, size: 0x8, addend: 0x0, symName: __ZNSt3__16vectorI6GColorNS_9allocatorIS1_EEED1B7v160006Ev, symObjAddr: 0x6730, symBinAddr: 0x1000246E0, symSize: 0x20 }
  - { offsetInCU: 0x18ECB, offset: 0x42D54, size: 0x8, addend: 0x0, symName: __ZN16MyGradientShaderD1Ev, symObjAddr: 0x6750, symBinAddr: 0x100024700, symSize: 0x20 }
  - { offsetInCU: 0x18EF5, offset: 0x42D7E, size: 0x8, addend: 0x0, symName: __ZN16MyGradientShaderD0Ev, symObjAddr: 0x6770, symBinAddr: 0x100024720, symSize: 0x30 }
  - { offsetInCU: 0x18F1F, offset: 0x42DA8, size: 0x8, addend: 0x0, symName: __ZN16MyGradientShader8isOpaqueEv, symObjAddr: 0x67A0, symBinAddr: 0x100024750, symSize: 0x20 }
  - { offsetInCU: 0x18F43, offset: 0x42DCC, size: 0x8, addend: 0x0, symName: __ZN16MyGradientShader10setContextERK7GMatrix, symObjAddr: 0x67C0, symBinAddr: 0x100024770, symSize: 0xE0 }
  - { offsetInCU: 0x18FA8, offset: 0x42E31, size: 0x8, addend: 0x0, symName: __ZN16MyGradientShader8shadeRowEiiiPj, symObjAddr: 0x68A0, symBinAddr: 0x100024850, symSize: 0x290 }
  - { offsetInCU: 0x19075, offset: 0x42EFE, size: 0x8, addend: 0x0, symName: __ZNSt3__16vectorI6GColorNS_9allocatorIS1_EEEC2B7v160006Ev, symObjAddr: 0x6B30, symBinAddr: 0x100024AE0, symSize: 0x60 }
  - { offsetInCU: 0x190A3, offset: 0x42F2C, size: 0x8, addend: 0x0, symName: __ZNSt3__117__compressed_pairIP6GColorNS_9allocatorIS1_EEEC1B7v160006IDnNS_18__default_init_tagEEEOT_OT0_, symObjAddr: 0x6B90, symBinAddr: 0x100024B40, symSize: 0x30 }
  - { offsetInCU: 0x190FA, offset: 0x42F83, size: 0x8, addend: 0x0, symName: __ZNSt3__117__compressed_pairIP6GColorNS_9allocatorIS1_EEEC2B7v160006IDnNS_18__default_init_tagEEEOT_OT0_, symObjAddr: 0x6BD0, symBinAddr: 0x100024B80, symSize: 0x40 }
  - { offsetInCU: 0x19151, offset: 0x42FDA, size: 0x8, addend: 0x0, symName: __ZNSt3__122__compressed_pair_elemIP6GColorLi0ELb0EEC2B7v160006IDnvEEOT_, symObjAddr: 0x6C10, symBinAddr: 0x100024BC0, symSize: 0x20 }
  - { offsetInCU: 0x19192, offset: 0x4301B, size: 0x8, addend: 0x0, symName: __ZNSt3__122__compressed_pair_elemINS_9allocatorI6GColorEELi1ELb1EEC2B7v160006ENS_18__default_init_tagE, symObjAddr: 0x6C30, symBinAddr: 0x100024BE0, symSize: 0x20 }
  - { offsetInCU: 0x191C5, offset: 0x4304E, size: 0x8, addend: 0x0, symName: __ZNSt3__19allocatorI6GColorEC2B7v160006Ev, symObjAddr: 0x6C50, symBinAddr: 0x100024C00, symSize: 0x20 }
  - { offsetInCU: 0x191EE, offset: 0x43077, size: 0x8, addend: 0x0, symName: __ZNSt3__116__non_trivial_ifILb1ENS_9allocatorI6GColorEEEC2B7v160006Ev, symObjAddr: 0x6C70, symBinAddr: 0x100024C20, symSize: 0x10 }
  - { offsetInCU: 0x19217, offset: 0x430A0, size: 0x8, addend: 0x0, symName: __ZNSt3__16vectorI6GColorNS_9allocatorIS1_EEE9__end_capB7v160006Ev, symObjAddr: 0x6C80, symBinAddr: 0x100024C30, symSize: 0x20 }
  - { offsetInCU: 0x1923B, offset: 0x430C4, size: 0x8, addend: 0x0, symName: __ZNSt3__16vectorI6GColorNS_9allocatorIS1_EEE22__construct_one_at_endB7v160006IJRKS1_EEEvDpOT_, symObjAddr: 0x6CA0, symBinAddr: 0x100024C50, symSize: 0x90 }
  - { offsetInCU: 0x19288, offset: 0x43111, size: 0x8, addend: 0x0, symName: __ZNSt3__16vectorI6GColorNS_9allocatorIS1_EEE21__push_back_slow_pathIRKS1_EEvOT_, symObjAddr: 0x6D30, symBinAddr: 0x100024CE0, symSize: 0xD0 }
  - { offsetInCU: 0x192E5, offset: 0x4316E, size: 0x8, addend: 0x0, symName: __ZNSt3__117__compressed_pairIP6GColorNS_9allocatorIS1_EEE5firstB7v160006Ev, symObjAddr: 0x6E00, symBinAddr: 0x100024DB0, symSize: 0x20 }
  - { offsetInCU: 0x19309, offset: 0x43192, size: 0x8, addend: 0x0, symName: __ZNSt3__122__compressed_pair_elemIP6GColorLi0ELb0EE5__getB7v160006Ev, symObjAddr: 0x6E20, symBinAddr: 0x100024DD0, symSize: 0x10 }
  - { offsetInCU: 0x19346, offset: 0x431CF, size: 0x8, addend: 0x0, symName: __ZNSt3__16vectorI6GColorNS_9allocatorIS1_EEE21_ConstructTransactionC1B7v160006ERS4_m, symObjAddr: 0x6E30, symBinAddr: 0x100024DE0, symSize: 0x30 }
  - { offsetInCU: 0x1938D, offset: 0x43216, size: 0x8, addend: 0x0, symName: __ZNSt3__116allocator_traitsINS_9allocatorI6GColorEEE9constructB7v160006IS2_JRKS2_EvEEvRS3_PT_DpOT0_, symObjAddr: 0x6E60, symBinAddr: 0x100024E10, symSize: 0x30 }
  - { offsetInCU: 0x193E4, offset: 0x4326D, size: 0x8, addend: 0x0, symName: __ZNSt3__16vectorI6GColorNS_9allocatorIS1_EEE7__allocB7v160006Ev, symObjAddr: 0x6E90, symBinAddr: 0x100024E40, symSize: 0x20 }
  - { offsetInCU: 0x19408, offset: 0x43291, size: 0x8, addend: 0x0, symName: __ZNSt3__16vectorI6GColorNS_9allocatorIS1_EEE21_ConstructTransactionD1B7v160006Ev, symObjAddr: 0x6EC0, symBinAddr: 0x100024E70, symSize: 0x20 }
  - { offsetInCU: 0x19431, offset: 0x432BA, size: 0x8, addend: 0x0, symName: __ZNSt3__16vectorI6GColorNS_9allocatorIS1_EEE21_ConstructTransactionC2B7v160006ERS4_m, symObjAddr: 0x6EE0, symBinAddr: 0x100024E90, symSize: 0x40 }
  - { offsetInCU: 0x19478, offset: 0x43301, size: 0x8, addend: 0x0, symName: __ZNSt3__19allocatorI6GColorE9constructB7v160006IS1_JRKS1_EEEvPT_DpOT0_, symObjAddr: 0x6F20, symBinAddr: 0x100024ED0, symSize: 0x30 }
  - { offsetInCU: 0x194CC, offset: 0x43355, size: 0x8, addend: 0x0, symName: __ZNSt3__117__compressed_pairIP6GColorNS_9allocatorIS1_EEE6secondB7v160006Ev, symObjAddr: 0x6F50, symBinAddr: 0x100024F00, symSize: 0x20 }
  - { offsetInCU: 0x194F0, offset: 0x43379, size: 0x8, addend: 0x0, symName: __ZNSt3__122__compressed_pair_elemINS_9allocatorI6GColorEELi1ELb1EE5__getB7v160006Ev, symObjAddr: 0x6F70, symBinAddr: 0x100024F20, symSize: 0x10 }
  - { offsetInCU: 0x19514, offset: 0x4339D, size: 0x8, addend: 0x0, symName: __ZNSt3__16vectorI6GColorNS_9allocatorIS1_EEE21_ConstructTransactionD2B7v160006Ev, symObjAddr: 0x6F80, symBinAddr: 0x100024F30, symSize: 0x20 }
  - { offsetInCU: 0x1953D, offset: 0x433C6, size: 0x8, addend: 0x0, symName: __ZNKSt3__16vectorI6GColorNS_9allocatorIS1_EEE11__recommendB7v160006Em, symObjAddr: 0x6FA0, symBinAddr: 0x100024F50, symSize: 0xA0 }
  - { offsetInCU: 0x19591, offset: 0x4341A, size: 0x8, addend: 0x0, symName: __ZNKSt3__16vectorI6GColorNS_9allocatorIS1_EEE4sizeB7v160006Ev, symObjAddr: 0x7040, symBinAddr: 0x100024FF0, symSize: 0x20 }
  - { offsetInCU: 0x195B5, offset: 0x4343E, size: 0x8, addend: 0x0, symName: __ZNSt3__114__split_bufferI6GColorRNS_9allocatorIS1_EEEC1EmmS4_, symObjAddr: 0x7060, symBinAddr: 0x100025010, symSize: 0x40 }
  - { offsetInCU: 0x1960A, offset: 0x43493, size: 0x8, addend: 0x0, symName: __ZNSt3__114__split_bufferI6GColorRNS_9allocatorIS1_EEED1Ev, symObjAddr: 0x71D0, symBinAddr: 0x100025180, symSize: 0x20 }
  - { offsetInCU: 0x19635, offset: 0x434BE, size: 0x8, addend: 0x0, symName: __ZNKSt3__16vectorI6GColorNS_9allocatorIS1_EEE8max_sizeEv, symObjAddr: 0x71F0, symBinAddr: 0x1000251A0, symSize: 0x60 }
  - { offsetInCU: 0x1965C, offset: 0x434E5, size: 0x8, addend: 0x0, symName: __ZNKSt3__16vectorI6GColorNS_9allocatorIS1_EEE20__throw_length_errorB7v160006Ev, symObjAddr: 0x7250, symBinAddr: 0x100025200, symSize: 0x20 }
  - { offsetInCU: 0x19680, offset: 0x43509, size: 0x8, addend: 0x0, symName: __ZNKSt3__16vectorI6GColorNS_9allocatorIS1_EEE8capacityB7v160006Ev, symObjAddr: 0x7270, symBinAddr: 0x100025220, symSize: 0x30 }
  - { offsetInCU: 0x196AE, offset: 0x43537, size: 0x8, addend: 0x0, symName: __ZNSt3__116allocator_traitsINS_9allocatorI6GColorEEE8max_sizeB7v160006IS3_vEEmRKS3_, symObjAddr: 0x7300, symBinAddr: 0x100025250, symSize: 0x20 }
  - { offsetInCU: 0x196DC, offset: 0x43565, size: 0x8, addend: 0x0, symName: __ZNKSt3__16vectorI6GColorNS_9allocatorIS1_EEE7__allocB7v160006Ev, symObjAddr: 0x7320, symBinAddr: 0x100025270, symSize: 0x20 }
  - { offsetInCU: 0x19700, offset: 0x43589, size: 0x8, addend: 0x0, symName: __ZNKSt3__19allocatorI6GColorE8max_sizeB7v160006Ev, symObjAddr: 0x73D0, symBinAddr: 0x100025290, symSize: 0x20 }
  - { offsetInCU: 0x19724, offset: 0x435AD, size: 0x8, addend: 0x0, symName: __ZNKSt3__117__compressed_pairIP6GColorNS_9allocatorIS1_EEE6secondB7v160006Ev, symObjAddr: 0x73F0, symBinAddr: 0x1000252B0, symSize: 0x20 }
  - { offsetInCU: 0x19748, offset: 0x435D1, size: 0x8, addend: 0x0, symName: __ZNKSt3__122__compressed_pair_elemINS_9allocatorI6GColorEELi1ELb1EE5__getB7v160006Ev, symObjAddr: 0x7410, symBinAddr: 0x1000252D0, symSize: 0x10 }
  - { offsetInCU: 0x1976C, offset: 0x435F5, size: 0x8, addend: 0x0, symName: __ZNKSt3__16vectorI6GColorNS_9allocatorIS1_EEE9__end_capB7v160006Ev, symObjAddr: 0x7510, symBinAddr: 0x1000252E0, symSize: 0x20 }
  - { offsetInCU: 0x19790, offset: 0x43619, size: 0x8, addend: 0x0, symName: __ZNKSt3__117__compressed_pairIP6GColorNS_9allocatorIS1_EEE5firstB7v160006Ev, symObjAddr: 0x7530, symBinAddr: 0x100025300, symSize: 0x20 }
  - { offsetInCU: 0x197B4, offset: 0x4363D, size: 0x8, addend: 0x0, symName: __ZNKSt3__122__compressed_pair_elemIP6GColorLi0ELb0EE5__getB7v160006Ev, symObjAddr: 0x7550, symBinAddr: 0x100025320, symSize: 0x10 }
  - { offsetInCU: 0x197D8, offset: 0x43661, size: 0x8, addend: 0x0, symName: __ZNSt3__114__split_bufferI6GColorRNS_9allocatorIS1_EEEC2EmmS4_, symObjAddr: 0x75B0, symBinAddr: 0x100025330, symSize: 0xD0 }
  - { offsetInCU: 0x1984A, offset: 0x436D3, size: 0x8, addend: 0x0, symName: __ZNSt3__117__compressed_pairIP6GColorRNS_9allocatorIS1_EEEC1B7v160006IDnS5_EEOT_OT0_, symObjAddr: 0x7680, symBinAddr: 0x100025400, symSize: 0x30 }
  - { offsetInCU: 0x198A1, offset: 0x4372A, size: 0x8, addend: 0x0, symName: __ZNSt3__114__split_bufferI6GColorRNS_9allocatorIS1_EEE7__allocB7v160006Ev, symObjAddr: 0x76F0, symBinAddr: 0x100025470, symSize: 0x20 }
  - { offsetInCU: 0x198C5, offset: 0x4374E, size: 0x8, addend: 0x0, symName: __ZNSt3__114__split_bufferI6GColorRNS_9allocatorIS1_EEE9__end_capB7v160006Ev, symObjAddr: 0x7710, symBinAddr: 0x100025490, symSize: 0x20 }
  - { offsetInCU: 0x198E9, offset: 0x43772, size: 0x8, addend: 0x0, symName: __ZNSt3__117__compressed_pairIP6GColorRNS_9allocatorIS1_EEEC2B7v160006IDnS5_EEOT_OT0_, symObjAddr: 0x7730, symBinAddr: 0x1000254B0, symSize: 0x40 }
  - { offsetInCU: 0x19940, offset: 0x437C9, size: 0x8, addend: 0x0, symName: __ZNSt3__122__compressed_pair_elemIRNS_9allocatorI6GColorEELi1ELb0EEC2B7v160006IS4_vEEOT_, symObjAddr: 0x7770, symBinAddr: 0x1000254F0, symSize: 0x20 }
  - { offsetInCU: 0x19981, offset: 0x4380A, size: 0x8, addend: 0x0, symName: __ZNSt3__19allocatorI6GColorE8allocateB7v160006Em, symObjAddr: 0x7790, symBinAddr: 0x100025510, symSize: 0x50 }
  - { offsetInCU: 0x199B3, offset: 0x4383C, size: 0x8, addend: 0x0, symName: __ZNSt3__117__compressed_pairIP6GColorRNS_9allocatorIS1_EEE6secondB7v160006Ev, symObjAddr: 0x78F0, symBinAddr: 0x100025560, symSize: 0x20 }
  - { offsetInCU: 0x199D7, offset: 0x43860, size: 0x8, addend: 0x0, symName: __ZNSt3__122__compressed_pair_elemIRNS_9allocatorI6GColorEELi1ELb0EE5__getB7v160006Ev, symObjAddr: 0x7910, symBinAddr: 0x100025580, symSize: 0x20 }
  - { offsetInCU: 0x199FB, offset: 0x43884, size: 0x8, addend: 0x0, symName: __ZNSt3__117__compressed_pairIP6GColorRNS_9allocatorIS1_EEE5firstB7v160006Ev, symObjAddr: 0x7930, symBinAddr: 0x1000255A0, symSize: 0x20 }
  - { offsetInCU: 0x19A1F, offset: 0x438A8, size: 0x8, addend: 0x0, symName: __ZNKSt3__16vectorI6GColorNS_9allocatorIS1_EEE17__annotate_deleteB7v160006Ev, symObjAddr: 0x7950, symBinAddr: 0x1000255C0, symSize: 0xB0 }
  - { offsetInCU: 0x19A43, offset: 0x438CC, size: 0x8, addend: 0x0, symName: __ZNSt3__116reverse_iteratorIP6GColorEC1B7v160006ES2_, symObjAddr: 0x7A70, symBinAddr: 0x1000256E0, symSize: 0x30 }
  - { offsetInCU: 0x19A7A, offset: 0x43903, size: 0x8, addend: 0x0, symName: __ZNKSt3__116reverse_iteratorIP6GColorE4baseB7v160006Ev, symObjAddr: 0x7AA0, symBinAddr: 0x100025710, symSize: 0x20 }
  - { offsetInCU: 0x19A9E, offset: 0x43927, size: 0x8, addend: 0x0, symName: __ZNKSt3__16vectorI6GColorNS_9allocatorIS1_EEE14__annotate_newB7v160006Em, symObjAddr: 0x7B00, symBinAddr: 0x100025770, symSize: 0xB0 }
  - { offsetInCU: 0x19AD1, offset: 0x4395A, size: 0x8, addend: 0x0, symName: __ZNKSt3__16vectorI6GColorNS_9allocatorIS1_EEE31__annotate_contiguous_containerB7v160006EPKvS6_S6_S6_, symObjAddr: 0x7BC0, symBinAddr: 0x100025830, symSize: 0x20 }
  - { offsetInCU: 0x19B25, offset: 0x439AE, size: 0x8, addend: 0x0, symName: __ZNKSt3__16vectorI6GColorNS_9allocatorIS1_EEE4dataB7v160006Ev, symObjAddr: 0x7BE0, symBinAddr: 0x100025850, symSize: 0x20 }
  - { offsetInCU: 0x19B6C, offset: 0x439F5, size: 0x8, addend: 0x0, symName: __ZNKSt3__111__move_loopINS_17_ClassicAlgPolicyEEclB7v160006INS_16reverse_iteratorIP6GColorEES7_S7_EENS_4pairIT_T1_EES9_T0_SA_, symObjAddr: 0x8040, symBinAddr: 0x100025CB0, symSize: 0xA0 }
  - { offsetInCU: 0x19BDA, offset: 0x43A63, size: 0x8, addend: 0x0, symName: __ZNSt3__18_IterOpsINS_17_ClassicAlgPolicyEE11__iter_moveB7v160006IRNS_16reverse_iteratorIP6GColorEEEENS_9enable_ifIXsr12is_referenceIDTdeclsr3stdE7declvalIRT_EEEEE5valueEDTclsr3stdE4movedeclsr3stdE7declvalISB_EEEEE4typeEOSA_, symObjAddr: 0x8260, symBinAddr: 0x100025ED0, symSize: 0x20 }
  - { offsetInCU: 0x19C06, offset: 0x43A8F, size: 0x8, addend: 0x0, symName: __ZNKSt3__116reverse_iteratorIP6GColorEdeB7v160006Ev, symObjAddr: 0x8280, symBinAddr: 0x100025EF0, symSize: 0x30 }
  - { offsetInCU: 0x19C38, offset: 0x43AC1, size: 0x8, addend: 0x0, symName: __ZNSt3__116reverse_iteratorIP6GColorEppB7v160006Ev, symObjAddr: 0x82B0, symBinAddr: 0x100025F20, symSize: 0x20 }
  - { offsetInCU: 0x19C5C, offset: 0x43AE5, size: 0x8, addend: 0x0, symName: __ZNSt3__18_IterOpsINS_17_ClassicAlgPolicyEE25__validate_iter_referenceB7v160006IRNS_16reverse_iteratorIP6GColorEEEEvv, symObjAddr: 0x82D0, symBinAddr: 0x100025F40, symSize: 0x10 }
  - { offsetInCU: 0x19C7A, offset: 0x43B03, size: 0x8, addend: 0x0, symName: __ZNSt3__118__unwrap_iter_implINS_16reverse_iteratorIP6GColorEELb0EE8__unwrapB7v160006ES4_, symObjAddr: 0x82E0, symBinAddr: 0x100025F50, symSize: 0x20 }
  - { offsetInCU: 0x19CA2, offset: 0x43B2B, size: 0x8, addend: 0x0, symName: __ZNSt3__14pairINS_16reverse_iteratorIP6GColorEES4_EC1B7v160006IS4_S4_LPv0EEEOT_OT0_, symObjAddr: 0x8300, symBinAddr: 0x100025F70, symSize: 0x30 }
  - { offsetInCU: 0x19CFF, offset: 0x43B88, size: 0x8, addend: 0x0, symName: __ZNSt3__14pairINS_16reverse_iteratorIP6GColorEES4_EC2B7v160006IS4_S4_LPv0EEEOT_OT0_, symObjAddr: 0x8330, symBinAddr: 0x100025FA0, symSize: 0x40 }
  - { offsetInCU: 0x19D5C, offset: 0x43BE5, size: 0x8, addend: 0x0, symName: __ZNSt3__118__unwrap_iter_implINS_16reverse_iteratorIP6GColorEELb0EE8__rewrapB7v160006ES4_S4_, symObjAddr: 0x8370, symBinAddr: 0x100025FE0, symSize: 0x30 }
  - { offsetInCU: 0x19D89, offset: 0x43C12, size: 0x8, addend: 0x0, symName: __ZNSt3__116reverse_iteratorIP6GColorEC2B7v160006ES2_, symObjAddr: 0x83A0, symBinAddr: 0x100026010, symSize: 0x30 }
  - { offsetInCU: 0x19DC0, offset: 0x43C49, size: 0x8, addend: 0x0, symName: __ZNSt3__114__split_bufferI6GColorRNS_9allocatorIS1_EEED2Ev, symObjAddr: 0x83D0, symBinAddr: 0x100026040, symSize: 0x70 }
  - { offsetInCU: 0x19DEB, offset: 0x43C74, size: 0x8, addend: 0x0, symName: __ZNSt3__114__split_bufferI6GColorRNS_9allocatorIS1_EEE5clearB7v160006Ev, symObjAddr: 0x8440, symBinAddr: 0x1000260B0, symSize: 0x20 }
  - { offsetInCU: 0x19E0F, offset: 0x43C98, size: 0x8, addend: 0x0, symName: __ZNSt3__116allocator_traitsINS_9allocatorI6GColorEEE10deallocateB7v160006ERS3_PS2_m, symObjAddr: 0x8460, symBinAddr: 0x1000260D0, symSize: 0x30 }
  - { offsetInCU: 0x19E51, offset: 0x43CDA, size: 0x8, addend: 0x0, symName: __ZNKSt3__114__split_bufferI6GColorRNS_9allocatorIS1_EEE8capacityB7v160006Ev, symObjAddr: 0x8490, symBinAddr: 0x100026100, symSize: 0x30 }
  - { offsetInCU: 0x19E75, offset: 0x43CFE, size: 0x8, addend: 0x0, symName: __ZNSt3__114__split_bufferI6GColorRNS_9allocatorIS1_EEE17__destruct_at_endB7v160006EPS1_, symObjAddr: 0x84C0, symBinAddr: 0x100026130, symSize: 0x30 }
  - { offsetInCU: 0x19EA7, offset: 0x43D30, size: 0x8, addend: 0x0, symName: __ZNSt3__114__split_bufferI6GColorRNS_9allocatorIS1_EEE17__destruct_at_endB7v160006EPS1_NS_17integral_constantIbLb0EEE, symObjAddr: 0x84F0, symBinAddr: 0x100026160, symSize: 0x80 }
  - { offsetInCU: 0x19EE6, offset: 0x43D6F, size: 0x8, addend: 0x0, symName: __ZNSt3__116allocator_traitsINS_9allocatorI6GColorEEE7destroyB7v160006IS2_vEEvRS3_PT_, symObjAddr: 0x8570, symBinAddr: 0x1000261E0, symSize: 0x30 }
  - { offsetInCU: 0x19F23, offset: 0x43DAC, size: 0x8, addend: 0x0, symName: __ZNSt3__19allocatorI6GColorE7destroyB7v160006EPS1_, symObjAddr: 0x85A0, symBinAddr: 0x100026210, symSize: 0x10 }
  - { offsetInCU: 0x19F55, offset: 0x43DDE, size: 0x8, addend: 0x0, symName: __ZNSt3__19allocatorI6GColorE10deallocateB7v160006EPS1_m, symObjAddr: 0x85B0, symBinAddr: 0x100026220, symSize: 0x40 }
  - { offsetInCU: 0x19F95, offset: 0x43E1E, size: 0x8, addend: 0x0, symName: __ZNKSt3__114__split_bufferI6GColorRNS_9allocatorIS1_EEE9__end_capB7v160006Ev, symObjAddr: 0x86F0, symBinAddr: 0x100026260, symSize: 0x20 }
  - { offsetInCU: 0x19FB9, offset: 0x43E42, size: 0x8, addend: 0x0, symName: __ZNKSt3__117__compressed_pairIP6GColorRNS_9allocatorIS1_EEE5firstB7v160006Ev, symObjAddr: 0x8710, symBinAddr: 0x100026280, symSize: 0x20 }
  - { offsetInCU: 0x19FDD, offset: 0x43E66, size: 0x8, addend: 0x0, symName: __ZNSt3__16vectorI6GColorNS_9allocatorIS1_EEED2B7v160006Ev, symObjAddr: 0x8730, symBinAddr: 0x1000262A0, symSize: 0x40 }
  - { offsetInCU: 0x1A006, offset: 0x43E8F, size: 0x8, addend: 0x0, symName: __ZNSt3__16vectorI6GColorNS_9allocatorIS1_EEE16__destroy_vectorC1ERS4_, symObjAddr: 0x8770, symBinAddr: 0x1000262E0, symSize: 0x30 }
  - { offsetInCU: 0x1A03E, offset: 0x43EC7, size: 0x8, addend: 0x0, symName: __ZNSt3__16vectorI6GColorNS_9allocatorIS1_EEE16__destroy_vectorclB7v160006Ev, symObjAddr: 0x87A0, symBinAddr: 0x100026310, symSize: 0x90 }
  - { offsetInCU: 0x1A062, offset: 0x43EEB, size: 0x8, addend: 0x0, symName: __ZNSt3__16vectorI6GColorNS_9allocatorIS1_EEE16__destroy_vectorC2ERS4_, symObjAddr: 0x8830, symBinAddr: 0x1000263A0, symSize: 0x20 }
  - { offsetInCU: 0x1A09A, offset: 0x43F23, size: 0x8, addend: 0x0, symName: __ZNSt3__16vectorI6GColorNS_9allocatorIS1_EEE7__clearB7v160006Ev, symObjAddr: 0x8860, symBinAddr: 0x1000263D0, symSize: 0x20 }
  - { offsetInCU: 0x1A0BE, offset: 0x43F47, size: 0x8, addend: 0x0, symName: __ZNSt3__16vectorI6GColorNS_9allocatorIS1_EEE22__base_destruct_at_endB7v160006EPS1_, symObjAddr: 0x8880, symBinAddr: 0x1000263F0, symSize: 0x80 }
  - { offsetInCU: 0x1A100, offset: 0x43F89, size: 0x8, addend: 0x0, symName: __ZN16MyGradientShaderD2Ev, symObjAddr: 0x8900, symBinAddr: 0x100026470, symSize: 0x50 }
  - { offsetInCU: 0x1A129, offset: 0x43FB2, size: 0x8, addend: 0x0, symName: __Z5floorB7v160006f, symObjAddr: 0x8A20, symBinAddr: 0x1000264C0, symSize: 0x20 }
  - { offsetInCU: 0x1A157, offset: 0x43FE0, size: 0x8, addend: 0x0, symName: __ZmlfRK6GColor, symObjAddr: 0x8A40, symBinAddr: 0x1000264E0, symSize: 0x40 }
  - { offsetInCU: 0x1A192, offset: 0x4401B, size: 0x8, addend: 0x0, symName: __ZNSt3__16vectorI6GColorNS_9allocatorIS1_EEEixB7v160006Em, symObjAddr: 0x8A80, symBinAddr: 0x100026520, symSize: 0x20 }
  - { offsetInCU: 0x1A1C8, offset: 0x44051, size: 0x8, addend: 0x0, symName: __ZNK6GColorplERKS_, symObjAddr: 0x8AA0, symBinAddr: 0x100026540, symSize: 0x80 }
  - { offsetInCU: 0x1A1F9, offset: 0x44082, size: 0x8, addend: 0x0, symName: __ZmlRK6GColorf, symObjAddr: 0x8B20, symBinAddr: 0x1000265C0, symSize: 0x80 }
  - { offsetInCU: 0x1A234, offset: 0x440BD, size: 0x8, addend: 0x0, symName: __ZN4Edge7getTopXE6GPointS0_, symObjAddr: 0x8BE0, symBinAddr: 0x100026680, symSize: 0x50 }
  - { offsetInCU: 0x1A273, offset: 0x440FC, size: 0x8, addend: 0x0, symName: __ZN4Edge10getBottomXE6GPointS0_7GBitmap, symObjAddr: 0x8C30, symBinAddr: 0x1000266D0, symSize: 0x70 }
  - { offsetInCU: 0x1A2C0, offset: 0x44149, size: 0x8, addend: 0x0, symName: __ZN4EdgeC1E6GPointS0_7GBitmapi, symObjAddr: 0x8CA0, symBinAddr: 0x100026740, symSize: 0x50 }
  - { offsetInCU: 0x1A321, offset: 0x441AA, size: 0x8, addend: 0x0, symName: __ZNSt3__16vectorI4EdgeNS_9allocatorIS1_EEE9push_backB7v160006ERKS1_, symObjAddr: 0x8CF0, symBinAddr: 0x100026790, symSize: 0x60 }
  - { offsetInCU: 0x1A357, offset: 0x441E0, size: 0x8, addend: 0x0, symName: __ZN4Edge8getLeftYE6GPointS0_, symObjAddr: 0x8D50, symBinAddr: 0x1000267F0, symSize: 0x50 }
  - { offsetInCU: 0x1A396, offset: 0x4421F, size: 0x8, addend: 0x0, symName: __ZN4Edge9getRightYE6GPointS0_7GBitmap, symObjAddr: 0x8DA0, symBinAddr: 0x100026840, symSize: 0x70 }
  - { offsetInCU: 0x1A3E3, offset: 0x4426C, size: 0x8, addend: 0x0, symName: __ZN4EdgeC2E6GPointS0_7GBitmapi, symObjAddr: 0x8E10, symBinAddr: 0x1000268B0, symSize: 0xD0 }
  - { offsetInCU: 0x1A460, offset: 0x442E9, size: 0x8, addend: 0x0, symName: __ZN4Edge14calculateSlopeE6GPointS0_, symObjAddr: 0x8EE0, symBinAddr: 0x100026980, symSize: 0x30 }
  - { offsetInCU: 0x1A4A0, offset: 0x44329, size: 0x8, addend: 0x0, symName: __ZN4Edge10calculateBE6GPointS0_, symObjAddr: 0x8F10, symBinAddr: 0x1000269B0, symSize: 0x40 }
  - { offsetInCU: 0x1A4E0, offset: 0x44369, size: 0x8, addend: 0x0, symName: __ZNSt3__16vectorI4EdgeNS_9allocatorIS1_EEE9__end_capB7v160006Ev, symObjAddr: 0x8F50, symBinAddr: 0x1000269F0, symSize: 0x20 }
  - { offsetInCU: 0x1A504, offset: 0x4438D, size: 0x8, addend: 0x0, symName: __ZNSt3__16vectorI4EdgeNS_9allocatorIS1_EEE22__construct_one_at_endB7v160006IJRKS1_EEEvDpOT_, symObjAddr: 0x8F70, symBinAddr: 0x100026A10, symSize: 0x90 }
  - { offsetInCU: 0x1A551, offset: 0x443DA, size: 0x8, addend: 0x0, symName: __ZNSt3__16vectorI4EdgeNS_9allocatorIS1_EEE21__push_back_slow_pathIRKS1_EEvOT_, symObjAddr: 0x9000, symBinAddr: 0x100026AA0, symSize: 0xD0 }
  - { offsetInCU: 0x1A5AE, offset: 0x44437, size: 0x8, addend: 0x0, symName: __ZNSt3__117__compressed_pairIP4EdgeNS_9allocatorIS1_EEE5firstB7v160006Ev, symObjAddr: 0x90D0, symBinAddr: 0x100026B70, symSize: 0x20 }
  - { offsetInCU: 0x1A5D2, offset: 0x4445B, size: 0x8, addend: 0x0, symName: __ZNSt3__122__compressed_pair_elemIP4EdgeLi0ELb0EE5__getB7v160006Ev, symObjAddr: 0x90F0, symBinAddr: 0x100026B90, symSize: 0x10 }
  - { offsetInCU: 0x1A60F, offset: 0x44498, size: 0x8, addend: 0x0, symName: __ZNSt3__16vectorI4EdgeNS_9allocatorIS1_EEE21_ConstructTransactionC1B7v160006ERS4_m, symObjAddr: 0x9100, symBinAddr: 0x100026BA0, symSize: 0x30 }
  - { offsetInCU: 0x1A656, offset: 0x444DF, size: 0x8, addend: 0x0, symName: __ZNSt3__116allocator_traitsINS_9allocatorI4EdgeEEE9constructB7v160006IS2_JRKS2_EvEEvRS3_PT_DpOT0_, symObjAddr: 0x9130, symBinAddr: 0x100026BD0, symSize: 0x30 }
  - { offsetInCU: 0x1A6AD, offset: 0x44536, size: 0x8, addend: 0x0, symName: __ZNSt3__16vectorI4EdgeNS_9allocatorIS1_EEE7__allocB7v160006Ev, symObjAddr: 0x9160, symBinAddr: 0x100026C00, symSize: 0x20 }
  - { offsetInCU: 0x1A6D1, offset: 0x4455A, size: 0x8, addend: 0x0, symName: __ZNSt3__16vectorI4EdgeNS_9allocatorIS1_EEE21_ConstructTransactionD1B7v160006Ev, symObjAddr: 0x9190, symBinAddr: 0x100026C30, symSize: 0x20 }
  - { offsetInCU: 0x1A6FA, offset: 0x44583, size: 0x8, addend: 0x0, symName: __ZNSt3__16vectorI4EdgeNS_9allocatorIS1_EEE21_ConstructTransactionC2B7v160006ERS4_m, symObjAddr: 0x91B0, symBinAddr: 0x100026C50, symSize: 0x40 }
  - { offsetInCU: 0x1A741, offset: 0x445CA, size: 0x8, addend: 0x0, symName: __ZNSt3__19allocatorI4EdgeE9constructB7v160006IS1_JRKS1_EEEvPT_DpOT0_, symObjAddr: 0x91F0, symBinAddr: 0x100026C90, symSize: 0x30 }
  - { offsetInCU: 0x1A795, offset: 0x4461E, size: 0x8, addend: 0x0, symName: __ZNSt3__117__compressed_pairIP4EdgeNS_9allocatorIS1_EEE6secondB7v160006Ev, symObjAddr: 0x9220, symBinAddr: 0x100026CC0, symSize: 0x20 }
  - { offsetInCU: 0x1A7B9, offset: 0x44642, size: 0x8, addend: 0x0, symName: __ZNSt3__122__compressed_pair_elemINS_9allocatorI4EdgeEELi1ELb1EE5__getB7v160006Ev, symObjAddr: 0x9240, symBinAddr: 0x100026CE0, symSize: 0x10 }
  - { offsetInCU: 0x1A7DD, offset: 0x44666, size: 0x8, addend: 0x0, symName: __ZNSt3__16vectorI4EdgeNS_9allocatorIS1_EEE21_ConstructTransactionD2B7v160006Ev, symObjAddr: 0x9250, symBinAddr: 0x100026CF0, symSize: 0x20 }
  - { offsetInCU: 0x1A806, offset: 0x4468F, size: 0x8, addend: 0x0, symName: __ZNKSt3__16vectorI4EdgeNS_9allocatorIS1_EEE11__recommendB7v160006Em, symObjAddr: 0x9270, symBinAddr: 0x100026D10, symSize: 0xA0 }
  - { offsetInCU: 0x1A85A, offset: 0x446E3, size: 0x8, addend: 0x0, symName: __ZNSt3__114__split_bufferI4EdgeRNS_9allocatorIS1_EEEC1EmmS4_, symObjAddr: 0x9310, symBinAddr: 0x100026DB0, symSize: 0x40 }
  - { offsetInCU: 0x1A8AF, offset: 0x44738, size: 0x8, addend: 0x0, symName: __ZNSt3__114__split_bufferI4EdgeRNS_9allocatorIS1_EEED1Ev, symObjAddr: 0x9480, symBinAddr: 0x100026F20, symSize: 0x20 }
  - { offsetInCU: 0x1A8DA, offset: 0x44763, size: 0x8, addend: 0x0, symName: __ZNKSt3__16vectorI4EdgeNS_9allocatorIS1_EEE8max_sizeEv, symObjAddr: 0x94A0, symBinAddr: 0x100026F40, symSize: 0x60 }
  - { offsetInCU: 0x1A901, offset: 0x4478A, size: 0x8, addend: 0x0, symName: __ZNKSt3__16vectorI4EdgeNS_9allocatorIS1_EEE20__throw_length_errorB7v160006Ev, symObjAddr: 0x9500, symBinAddr: 0x100026FA0, symSize: 0x20 }
  - { offsetInCU: 0x1A925, offset: 0x447AE, size: 0x8, addend: 0x0, symName: __ZNKSt3__16vectorI4EdgeNS_9allocatorIS1_EEE8capacityB7v160006Ev, symObjAddr: 0x9520, symBinAddr: 0x100026FC0, symSize: 0x40 }
  - { offsetInCU: 0x1A953, offset: 0x447DC, size: 0x8, addend: 0x0, symName: __ZNSt3__116allocator_traitsINS_9allocatorI4EdgeEEE8max_sizeB7v160006IS3_vEEmRKS3_, symObjAddr: 0x9560, symBinAddr: 0x100027000, symSize: 0x20 }
  - { offsetInCU: 0x1A981, offset: 0x4480A, size: 0x8, addend: 0x0, symName: __ZNKSt3__16vectorI4EdgeNS_9allocatorIS1_EEE7__allocB7v160006Ev, symObjAddr: 0x9580, symBinAddr: 0x100027020, symSize: 0x20 }
  - { offsetInCU: 0x1A9A5, offset: 0x4482E, size: 0x8, addend: 0x0, symName: __ZNKSt3__19allocatorI4EdgeE8max_sizeB7v160006Ev, symObjAddr: 0x95A0, symBinAddr: 0x100027040, symSize: 0x20 }
  - { offsetInCU: 0x1A9C9, offset: 0x44852, size: 0x8, addend: 0x0, symName: __ZNKSt3__117__compressed_pairIP4EdgeNS_9allocatorIS1_EEE6secondB7v160006Ev, symObjAddr: 0x95C0, symBinAddr: 0x100027060, symSize: 0x20 }
  - { offsetInCU: 0x1A9ED, offset: 0x44876, size: 0x8, addend: 0x0, symName: __ZNKSt3__122__compressed_pair_elemINS_9allocatorI4EdgeEELi1ELb1EE5__getB7v160006Ev, symObjAddr: 0x95E0, symBinAddr: 0x100027080, symSize: 0x10 }
  - { offsetInCU: 0x1AA11, offset: 0x4489A, size: 0x8, addend: 0x0, symName: __ZNKSt3__16vectorI4EdgeNS_9allocatorIS1_EEE9__end_capB7v160006Ev, symObjAddr: 0x95F0, symBinAddr: 0x100027090, symSize: 0x20 }
  - { offsetInCU: 0x1AA35, offset: 0x448BE, size: 0x8, addend: 0x0, symName: __ZNKSt3__117__compressed_pairIP4EdgeNS_9allocatorIS1_EEE5firstB7v160006Ev, symObjAddr: 0x9610, symBinAddr: 0x1000270B0, symSize: 0x20 }
  - { offsetInCU: 0x1AA59, offset: 0x448E2, size: 0x8, addend: 0x0, symName: __ZNKSt3__122__compressed_pair_elemIP4EdgeLi0ELb0EE5__getB7v160006Ev, symObjAddr: 0x9630, symBinAddr: 0x1000270D0, symSize: 0x10 }
  - { offsetInCU: 0x1AA7D, offset: 0x44906, size: 0x8, addend: 0x0, symName: __ZNSt3__114__split_bufferI4EdgeRNS_9allocatorIS1_EEEC2EmmS4_, symObjAddr: 0x9640, symBinAddr: 0x1000270E0, symSize: 0xC0 }
  - { offsetInCU: 0x1AAEF, offset: 0x44978, size: 0x8, addend: 0x0, symName: __ZNSt3__117__compressed_pairIP4EdgeRNS_9allocatorIS1_EEEC1B7v160006IDnS5_EEOT_OT0_, symObjAddr: 0x9700, symBinAddr: 0x1000271A0, symSize: 0x30 }
  - { offsetInCU: 0x1AB46, offset: 0x449CF, size: 0x8, addend: 0x0, symName: __ZNSt3__114__split_bufferI4EdgeRNS_9allocatorIS1_EEE7__allocB7v160006Ev, symObjAddr: 0x9770, symBinAddr: 0x100027210, symSize: 0x20 }
  - { offsetInCU: 0x1AB6A, offset: 0x449F3, size: 0x8, addend: 0x0, symName: __ZNSt3__114__split_bufferI4EdgeRNS_9allocatorIS1_EEE9__end_capB7v160006Ev, symObjAddr: 0x9790, symBinAddr: 0x100027230, symSize: 0x20 }
  - { offsetInCU: 0x1AB8E, offset: 0x44A17, size: 0x8, addend: 0x0, symName: __ZNSt3__117__compressed_pairIP4EdgeRNS_9allocatorIS1_EEEC2B7v160006IDnS5_EEOT_OT0_, symObjAddr: 0x97B0, symBinAddr: 0x100027250, symSize: 0x40 }
  - { offsetInCU: 0x1ABE5, offset: 0x44A6E, size: 0x8, addend: 0x0, symName: __ZNSt3__122__compressed_pair_elemIP4EdgeLi0ELb0EEC2B7v160006IDnvEEOT_, symObjAddr: 0x97F0, symBinAddr: 0x100027290, symSize: 0x20 }
  - { offsetInCU: 0x1AC26, offset: 0x44AAF, size: 0x8, addend: 0x0, symName: __ZNSt3__122__compressed_pair_elemIRNS_9allocatorI4EdgeEELi1ELb0EEC2B7v160006IS4_vEEOT_, symObjAddr: 0x9810, symBinAddr: 0x1000272B0, symSize: 0x20 }
  - { offsetInCU: 0x1AC67, offset: 0x44AF0, size: 0x8, addend: 0x0, symName: __ZNSt3__19allocatorI4EdgeE8allocateB7v160006Em, symObjAddr: 0x9830, symBinAddr: 0x1000272D0, symSize: 0x50 }
  - { offsetInCU: 0x1AC99, offset: 0x44B22, size: 0x8, addend: 0x0, symName: __ZNSt3__117__compressed_pairIP4EdgeRNS_9allocatorIS1_EEE6secondB7v160006Ev, symObjAddr: 0x9880, symBinAddr: 0x100027320, symSize: 0x20 }
  - { offsetInCU: 0x1ACBD, offset: 0x44B46, size: 0x8, addend: 0x0, symName: __ZNSt3__122__compressed_pair_elemIRNS_9allocatorI4EdgeEELi1ELb0EE5__getB7v160006Ev, symObjAddr: 0x98A0, symBinAddr: 0x100027340, symSize: 0x20 }
  - { offsetInCU: 0x1ACE1, offset: 0x44B6A, size: 0x8, addend: 0x0, symName: __ZNSt3__117__compressed_pairIP4EdgeRNS_9allocatorIS1_EEE5firstB7v160006Ev, symObjAddr: 0x98C0, symBinAddr: 0x100027360, symSize: 0x20 }
  - { offsetInCU: 0x1AD05, offset: 0x44B8E, size: 0x8, addend: 0x0, symName: __ZNKSt3__16vectorI4EdgeNS_9allocatorIS1_EEE17__annotate_deleteB7v160006Ev, symObjAddr: 0x98E0, symBinAddr: 0x100027380, symSize: 0xB0 }
  - { offsetInCU: 0x1AD29, offset: 0x44BB2, size: 0x8, addend: 0x0, symName: __ZNSt3__116reverse_iteratorIP4EdgeEC1B7v160006ES2_, symObjAddr: 0x9A00, symBinAddr: 0x1000274A0, symSize: 0x30 }
  - { offsetInCU: 0x1AD60, offset: 0x44BE9, size: 0x8, addend: 0x0, symName: __ZNKSt3__116reverse_iteratorIP4EdgeE4baseB7v160006Ev, symObjAddr: 0x9A30, symBinAddr: 0x1000274D0, symSize: 0x20 }
  - { offsetInCU: 0x1AD84, offset: 0x44C0D, size: 0x8, addend: 0x0, symName: __ZNKSt3__16vectorI4EdgeNS_9allocatorIS1_EEE14__annotate_newB7v160006Em, symObjAddr: 0x9A90, symBinAddr: 0x100027530, symSize: 0xA0 }
  - { offsetInCU: 0x1ADB7, offset: 0x44C40, size: 0x8, addend: 0x0, symName: __ZNKSt3__16vectorI4EdgeNS_9allocatorIS1_EEE31__annotate_contiguous_containerB7v160006EPKvS6_S6_S6_, symObjAddr: 0x9B40, symBinAddr: 0x1000275E0, symSize: 0x20 }
  - { offsetInCU: 0x1AE0B, offset: 0x44C94, size: 0x8, addend: 0x0, symName: __ZNKSt3__16vectorI4EdgeNS_9allocatorIS1_EEE4dataB7v160006Ev, symObjAddr: 0x9B60, symBinAddr: 0x100027600, symSize: 0x20 }
  - { offsetInCU: 0x1AE48, offset: 0x44CD1, size: 0x8, addend: 0x0, symName: __ZNKSt3__111__move_loopINS_17_ClassicAlgPolicyEEclB7v160006INS_16reverse_iteratorIP4EdgeEES7_S7_EENS_4pairIT_T1_EES9_T0_SA_, symObjAddr: 0x9FC0, symBinAddr: 0x100027A60, symSize: 0xB0 }
  - { offsetInCU: 0x1AEB6, offset: 0x44D3F, size: 0x8, addend: 0x0, symName: __ZNSt3__18_IterOpsINS_17_ClassicAlgPolicyEE11__iter_moveB7v160006IRNS_16reverse_iteratorIP4EdgeEEEENS_9enable_ifIXsr12is_referenceIDTdeclsr3stdE7declvalIRT_EEEEE5valueEDTclsr3stdE4movedeclsr3stdE7declvalISB_EEEEE4typeEOSA_, symObjAddr: 0xA1F0, symBinAddr: 0x100027C90, symSize: 0x20 }
  - { offsetInCU: 0x1AEE2, offset: 0x44D6B, size: 0x8, addend: 0x0, symName: __ZNKSt3__116reverse_iteratorIP4EdgeEdeB7v160006Ev, symObjAddr: 0xA210, symBinAddr: 0x100027CB0, symSize: 0x30 }
  - { offsetInCU: 0x1AF14, offset: 0x44D9D, size: 0x8, addend: 0x0, symName: __ZNSt3__116reverse_iteratorIP4EdgeEppB7v160006Ev, symObjAddr: 0xA240, symBinAddr: 0x100027CE0, symSize: 0x20 }
  - { offsetInCU: 0x1AF38, offset: 0x44DC1, size: 0x8, addend: 0x0, symName: __ZNSt3__18_IterOpsINS_17_ClassicAlgPolicyEE25__validate_iter_referenceB7v160006IRNS_16reverse_iteratorIP4EdgeEEEEvv, symObjAddr: 0xA260, symBinAddr: 0x100027D00, symSize: 0x10 }
  - { offsetInCU: 0x1AF56, offset: 0x44DDF, size: 0x8, addend: 0x0, symName: __ZNSt3__118__unwrap_iter_implINS_16reverse_iteratorIP4EdgeEELb0EE8__unwrapB7v160006ES4_, symObjAddr: 0xA270, symBinAddr: 0x100027D10, symSize: 0x20 }
  - { offsetInCU: 0x1AF7E, offset: 0x44E07, size: 0x8, addend: 0x0, symName: __ZNSt3__14pairINS_16reverse_iteratorIP4EdgeEES4_EC1B7v160006IS4_S4_LPv0EEEOT_OT0_, symObjAddr: 0xA290, symBinAddr: 0x100027D30, symSize: 0x30 }
  - { offsetInCU: 0x1AFDB, offset: 0x44E64, size: 0x8, addend: 0x0, symName: __ZNSt3__14pairINS_16reverse_iteratorIP4EdgeEES4_EC2B7v160006IS4_S4_LPv0EEEOT_OT0_, symObjAddr: 0xA2C0, symBinAddr: 0x100027D60, symSize: 0x40 }
  - { offsetInCU: 0x1B038, offset: 0x44EC1, size: 0x8, addend: 0x0, symName: __ZNSt3__118__unwrap_iter_implINS_16reverse_iteratorIP4EdgeEELb0EE8__rewrapB7v160006ES4_S4_, symObjAddr: 0xA300, symBinAddr: 0x100027DA0, symSize: 0x30 }
  - { offsetInCU: 0x1B065, offset: 0x44EEE, size: 0x8, addend: 0x0, symName: __ZNSt3__116reverse_iteratorIP4EdgeEC2B7v160006ES2_, symObjAddr: 0xA330, symBinAddr: 0x100027DD0, symSize: 0x30 }
  - { offsetInCU: 0x1B09C, offset: 0x44F25, size: 0x8, addend: 0x0, symName: __ZNSt3__114__split_bufferI4EdgeRNS_9allocatorIS1_EEED2Ev, symObjAddr: 0xA360, symBinAddr: 0x100027E00, symSize: 0x70 }
  - { offsetInCU: 0x1B0C7, offset: 0x44F50, size: 0x8, addend: 0x0, symName: __ZNSt3__114__split_bufferI4EdgeRNS_9allocatorIS1_EEE5clearB7v160006Ev, symObjAddr: 0xA3D0, symBinAddr: 0x100027E70, symSize: 0x20 }
  - { offsetInCU: 0x1B0EB, offset: 0x44F74, size: 0x8, addend: 0x0, symName: __ZNSt3__116allocator_traitsINS_9allocatorI4EdgeEEE10deallocateB7v160006ERS3_PS2_m, symObjAddr: 0xA3F0, symBinAddr: 0x100027E90, symSize: 0x30 }
  - { offsetInCU: 0x1B12D, offset: 0x44FB6, size: 0x8, addend: 0x0, symName: __ZNKSt3__114__split_bufferI4EdgeRNS_9allocatorIS1_EEE8capacityB7v160006Ev, symObjAddr: 0xA420, symBinAddr: 0x100027EC0, symSize: 0x40 }
  - { offsetInCU: 0x1B151, offset: 0x44FDA, size: 0x8, addend: 0x0, symName: __ZNSt3__114__split_bufferI4EdgeRNS_9allocatorIS1_EEE17__destruct_at_endB7v160006EPS1_, symObjAddr: 0xA460, symBinAddr: 0x100027F00, symSize: 0x30 }
  - { offsetInCU: 0x1B183, offset: 0x4500C, size: 0x8, addend: 0x0, symName: __ZNSt3__114__split_bufferI4EdgeRNS_9allocatorIS1_EEE17__destruct_at_endB7v160006EPS1_NS_17integral_constantIbLb0EEE, symObjAddr: 0xA490, symBinAddr: 0x100027F30, symSize: 0x80 }
  - { offsetInCU: 0x1B1C2, offset: 0x4504B, size: 0x8, addend: 0x0, symName: __ZNSt3__116allocator_traitsINS_9allocatorI4EdgeEEE7destroyB7v160006IS2_vEEvRS3_PT_, symObjAddr: 0xA510, symBinAddr: 0x100027FB0, symSize: 0x30 }
  - { offsetInCU: 0x1B1FF, offset: 0x45088, size: 0x8, addend: 0x0, symName: __ZNSt3__19allocatorI4EdgeE7destroyB7v160006EPS1_, symObjAddr: 0xA540, symBinAddr: 0x100027FE0, symSize: 0x10 }
  - { offsetInCU: 0x1B231, offset: 0x450BA, size: 0x8, addend: 0x0, symName: __ZNSt3__19allocatorI4EdgeE10deallocateB7v160006EPS1_m, symObjAddr: 0xA550, symBinAddr: 0x100027FF0, symSize: 0x50 }
  - { offsetInCU: 0x1B271, offset: 0x450FA, size: 0x8, addend: 0x0, symName: __ZNKSt3__114__split_bufferI4EdgeRNS_9allocatorIS1_EEE9__end_capB7v160006Ev, symObjAddr: 0xA5A0, symBinAddr: 0x100028040, symSize: 0x20 }
  - { offsetInCU: 0x1B295, offset: 0x4511E, size: 0x8, addend: 0x0, symName: __ZNKSt3__117__compressed_pairIP4EdgeRNS_9allocatorIS1_EEE5firstB7v160006Ev, symObjAddr: 0xA5C0, symBinAddr: 0x100028060, symSize: 0x20 }
  - { offsetInCU: 0x1B2B9, offset: 0x45142, size: 0x8, addend: 0x0, symName: __ZN8MyCanvasC2ERK7GBitmap, symObjAddr: 0xA5E0, symBinAddr: 0x100028080, symSize: 0xD0 }
  - { offsetInCU: 0x1B2F0, offset: 0x45179, size: 0x8, addend: 0x0, symName: __ZN7GCanvasC2Ev, symObjAddr: 0xA6B0, symBinAddr: 0x100028150, symSize: 0x20 }
  - { offsetInCU: 0x1B31A, offset: 0x451A3, size: 0x8, addend: 0x0, symName: __ZNSt3__16vectorI7GMatrixNS_9allocatorIS1_EEEC1B7v160006ESt16initializer_listIS1_E, symObjAddr: 0xA6D0, symBinAddr: 0x100028170, symSize: 0x30 }
  - { offsetInCU: 0x1B354, offset: 0x451DD, size: 0x8, addend: 0x0, symName: __ZN7GCanvasD2Ev, symObjAddr: 0xA700, symBinAddr: 0x1000281A0, symSize: 0x10 }
  - { offsetInCU: 0x1B37D, offset: 0x45206, size: 0x8, addend: 0x0, symName: __ZN7GCanvasD1Ev, symObjAddr: 0xA710, symBinAddr: 0x1000281B0, symSize: 0x10 }
  - { offsetInCU: 0x1B3A6, offset: 0x4522F, size: 0x8, addend: 0x0, symName: __ZN7GCanvasD0Ev, symObjAddr: 0xA720, symBinAddr: 0x1000281C0, symSize: 0x10 }
  - { offsetInCU: 0x1B3CF, offset: 0x45258, size: 0x8, addend: 0x0, symName: __ZNSt3__16vectorI7GMatrixNS_9allocatorIS1_EEEC2B7v160006ESt16initializer_listIS1_E, symObjAddr: 0xA730, symBinAddr: 0x1000281D0, symSize: 0x120 }
  - { offsetInCU: 0x1B41F, offset: 0x452A8, size: 0x8, addend: 0x0, symName: __ZNSt3__117__compressed_pairIP7GMatrixNS_9allocatorIS1_EEEC1B7v160006IDnNS_18__default_init_tagEEEOT_OT0_, symObjAddr: 0xA850, symBinAddr: 0x1000282F0, symSize: 0x30 }
  - { offsetInCU: 0x1B476, offset: 0x452FF, size: 0x8, addend: 0x0, symName: __ZNSt3__16vectorI7GMatrixNS_9allocatorIS1_EEE16__destroy_vectorC1ERS4_, symObjAddr: 0xA8C0, symBinAddr: 0x100028360, symSize: 0x30 }
  - { offsetInCU: 0x1B4AE, offset: 0x45337, size: 0x8, addend: 0x0, symName: __ZNKSt16initializer_listI7GMatrixE4sizeB7v160006Ev, symObjAddr: 0xA900, symBinAddr: 0x1000283A0, symSize: 0x20 }
  - { offsetInCU: 0x1B4D2, offset: 0x4535B, size: 0x8, addend: 0x0, symName: __ZNSt3__16vectorI7GMatrixNS_9allocatorIS1_EEE11__vallocateB7v160006Em, symObjAddr: 0xA920, symBinAddr: 0x1000283C0, symSize: 0xA0 }
  - { offsetInCU: 0x1B514, offset: 0x4539D, size: 0x8, addend: 0x0, symName: __ZNSt3__16vectorI7GMatrixNS_9allocatorIS1_EEE18__construct_at_endIPKS1_Li0EEEvT_S8_m, symObjAddr: 0xA9C0, symBinAddr: 0x100028460, symSize: 0x90 }
  - { offsetInCU: 0x1B586, offset: 0x4540F, size: 0x8, addend: 0x0, symName: __ZNKSt16initializer_listI7GMatrixE5beginB7v160006Ev, symObjAddr: 0xAA50, symBinAddr: 0x1000284F0, symSize: 0x20 }
  - { offsetInCU: 0x1B5AA, offset: 0x45433, size: 0x8, addend: 0x0, symName: __ZNKSt16initializer_listI7GMatrixE3endB7v160006Ev, symObjAddr: 0xAA70, symBinAddr: 0x100028510, symSize: 0x20 }
  - { offsetInCU: 0x1B5CE, offset: 0x45457, size: 0x8, addend: 0x0, symName: __ZNSt3__128__exception_guard_exceptionsINS_6vectorI7GMatrixNS_9allocatorIS2_EEE16__destroy_vectorEE10__completeB7v160006Ev, symObjAddr: 0xAA90, symBinAddr: 0x100028530, symSize: 0x20 }
  - { offsetInCU: 0x1B5F2, offset: 0x4547B, size: 0x8, addend: 0x0, symName: __ZNSt3__128__exception_guard_exceptionsINS_6vectorI7GMatrixNS_9allocatorIS2_EEE16__destroy_vectorEED1B7v160006Ev, symObjAddr: 0xAAB0, symBinAddr: 0x100028550, symSize: 0x20 }
  - { offsetInCU: 0x1B61B, offset: 0x454A4, size: 0x8, addend: 0x0, symName: __ZNSt3__117__compressed_pairIP7GMatrixNS_9allocatorIS1_EEEC2B7v160006IDnNS_18__default_init_tagEEEOT_OT0_, symObjAddr: 0xAAD0, symBinAddr: 0x100028570, symSize: 0x40 }
  - { offsetInCU: 0x1B672, offset: 0x454FB, size: 0x8, addend: 0x0, symName: __ZNSt3__122__compressed_pair_elemIP7GMatrixLi0ELb0EEC2B7v160006IDnvEEOT_, symObjAddr: 0xAB10, symBinAddr: 0x1000285B0, symSize: 0x20 }
  - { offsetInCU: 0x1B6B3, offset: 0x4553C, size: 0x8, addend: 0x0, symName: __ZNSt3__122__compressed_pair_elemINS_9allocatorI7GMatrixEELi1ELb1EEC2B7v160006ENS_18__default_init_tagE, symObjAddr: 0xAB30, symBinAddr: 0x1000285D0, symSize: 0x20 }
  - { offsetInCU: 0x1B6E6, offset: 0x4556F, size: 0x8, addend: 0x0, symName: __ZNSt3__19allocatorI7GMatrixEC2B7v160006Ev, symObjAddr: 0xAB50, symBinAddr: 0x1000285F0, symSize: 0x20 }
  - { offsetInCU: 0x1B70F, offset: 0x45598, size: 0x8, addend: 0x0, symName: __ZNSt3__116__non_trivial_ifILb1ENS_9allocatorI7GMatrixEEEC2B7v160006Ev, symObjAddr: 0xAB70, symBinAddr: 0x100028610, symSize: 0x10 }
  - { offsetInCU: 0x1B738, offset: 0x455C1, size: 0x8, addend: 0x0, symName: __ZNSt3__128__exception_guard_exceptionsINS_6vectorI7GMatrixNS_9allocatorIS2_EEE16__destroy_vectorEEC1B7v160006ES6_, symObjAddr: 0xAB80, symBinAddr: 0x100028620, symSize: 0x30 }
  - { offsetInCU: 0x1B76F, offset: 0x455F8, size: 0x8, addend: 0x0, symName: __ZNSt3__128__exception_guard_exceptionsINS_6vectorI7GMatrixNS_9allocatorIS2_EEE16__destroy_vectorEEC2B7v160006ES6_, symObjAddr: 0xABB0, symBinAddr: 0x100028650, symSize: 0x20 }
  - { offsetInCU: 0x1B7A6, offset: 0x4562F, size: 0x8, addend: 0x0, symName: __ZNSt3__16vectorI7GMatrixNS_9allocatorIS1_EEE16__destroy_vectorC2ERS4_, symObjAddr: 0xABD0, symBinAddr: 0x100028670, symSize: 0x20 }
  - { offsetInCU: 0x1B7DE, offset: 0x45667, size: 0x8, addend: 0x0, symName: __ZNKSt3__16vectorI7GMatrixNS_9allocatorIS1_EEE8max_sizeEv, symObjAddr: 0xABF0, symBinAddr: 0x100028690, symSize: 0x60 }
  - { offsetInCU: 0x1B805, offset: 0x4568E, size: 0x8, addend: 0x0, symName: __ZNKSt3__16vectorI7GMatrixNS_9allocatorIS1_EEE20__throw_length_errorB7v160006Ev, symObjAddr: 0xAC50, symBinAddr: 0x1000286F0, symSize: 0x20 }
  - { offsetInCU: 0x1B829, offset: 0x456B2, size: 0x8, addend: 0x0, symName: __ZNSt3__16vectorI7GMatrixNS_9allocatorIS1_EEE7__allocB7v160006Ev, symObjAddr: 0xACB0, symBinAddr: 0x100028750, symSize: 0x20 }
  - { offsetInCU: 0x1B84D, offset: 0x456D6, size: 0x8, addend: 0x0, symName: __ZNSt3__16vectorI7GMatrixNS_9allocatorIS1_EEE9__end_capB7v160006Ev, symObjAddr: 0xACD0, symBinAddr: 0x100028770, symSize: 0x20 }
  - { offsetInCU: 0x1B871, offset: 0x456FA, size: 0x8, addend: 0x0, symName: __ZNKSt3__16vectorI7GMatrixNS_9allocatorIS1_EEE14__annotate_newB7v160006Em, symObjAddr: 0xACF0, symBinAddr: 0x100028790, symSize: 0xA0 }
  - { offsetInCU: 0x1B8AE, offset: 0x45737, size: 0x8, addend: 0x0, symName: __ZNSt3__116allocator_traitsINS_9allocatorI7GMatrixEEE8max_sizeB7v160006IS3_vEEmRKS3_, symObjAddr: 0xAD90, symBinAddr: 0x100028830, symSize: 0x20 }
  - { offsetInCU: 0x1B8DC, offset: 0x45765, size: 0x8, addend: 0x0, symName: __ZNKSt3__16vectorI7GMatrixNS_9allocatorIS1_EEE7__allocB7v160006Ev, symObjAddr: 0xADB0, symBinAddr: 0x100028850, symSize: 0x20 }
  - { offsetInCU: 0x1B900, offset: 0x45789, size: 0x8, addend: 0x0, symName: __ZNKSt3__19allocatorI7GMatrixE8max_sizeB7v160006Ev, symObjAddr: 0xADD0, symBinAddr: 0x100028870, symSize: 0x20 }
  - { offsetInCU: 0x1B924, offset: 0x457AD, size: 0x8, addend: 0x0, symName: __ZNKSt3__117__compressed_pairIP7GMatrixNS_9allocatorIS1_EEE6secondB7v160006Ev, symObjAddr: 0xADF0, symBinAddr: 0x100028890, symSize: 0x20 }
  - { offsetInCU: 0x1B948, offset: 0x457D1, size: 0x8, addend: 0x0, symName: __ZNKSt3__122__compressed_pair_elemINS_9allocatorI7GMatrixEELi1ELb1EE5__getB7v160006Ev, symObjAddr: 0xAE10, symBinAddr: 0x1000288B0, symSize: 0x10 }
  - { offsetInCU: 0x1B96C, offset: 0x457F5, size: 0x8, addend: 0x0, symName: __ZNSt3__19allocatorI7GMatrixE8allocateB7v160006Em, symObjAddr: 0xAE20, symBinAddr: 0x1000288C0, symSize: 0x50 }
  - { offsetInCU: 0x1B99E, offset: 0x45827, size: 0x8, addend: 0x0, symName: __ZNSt3__117__compressed_pairIP7GMatrixNS_9allocatorIS1_EEE6secondB7v160006Ev, symObjAddr: 0xAE70, symBinAddr: 0x100028910, symSize: 0x20 }
  - { offsetInCU: 0x1B9C2, offset: 0x4584B, size: 0x8, addend: 0x0, symName: __ZNSt3__122__compressed_pair_elemINS_9allocatorI7GMatrixEELi1ELb1EE5__getB7v160006Ev, symObjAddr: 0xAE90, symBinAddr: 0x100028930, symSize: 0x10 }
  - { offsetInCU: 0x1B9E6, offset: 0x4586F, size: 0x8, addend: 0x0, symName: __ZNSt3__117__compressed_pairIP7GMatrixNS_9allocatorIS1_EEE5firstB7v160006Ev, symObjAddr: 0xAEA0, symBinAddr: 0x100028940, symSize: 0x20 }
  - { offsetInCU: 0x1BA0A, offset: 0x45893, size: 0x8, addend: 0x0, symName: __ZNSt3__122__compressed_pair_elemIP7GMatrixLi0ELb0EE5__getB7v160006Ev, symObjAddr: 0xAEC0, symBinAddr: 0x100028960, symSize: 0x10 }
  - { offsetInCU: 0x1BA2E, offset: 0x458B7, size: 0x8, addend: 0x0, symName: __ZNKSt3__16vectorI7GMatrixNS_9allocatorIS1_EEE31__annotate_contiguous_containerB7v160006EPKvS6_S6_S6_, symObjAddr: 0xAED0, symBinAddr: 0x100028970, symSize: 0x20 }
  - { offsetInCU: 0x1BA82, offset: 0x4590B, size: 0x8, addend: 0x0, symName: __ZNKSt3__16vectorI7GMatrixNS_9allocatorIS1_EEE4dataB7v160006Ev, symObjAddr: 0xAEF0, symBinAddr: 0x100028990, symSize: 0x20 }
  - { offsetInCU: 0x1BAA6, offset: 0x4592F, size: 0x8, addend: 0x0, symName: __ZNKSt3__16vectorI7GMatrixNS_9allocatorIS1_EEE8capacityB7v160006Ev, symObjAddr: 0xAF10, symBinAddr: 0x1000289B0, symSize: 0x40 }
  - { offsetInCU: 0x1BACA, offset: 0x45953, size: 0x8, addend: 0x0, symName: __ZNKSt3__16vectorI7GMatrixNS_9allocatorIS1_EEE9__end_capB7v160006Ev, symObjAddr: 0xAF60, symBinAddr: 0x100028A00, symSize: 0x20 }
  - { offsetInCU: 0x1BAEE, offset: 0x45977, size: 0x8, addend: 0x0, symName: __ZNKSt3__117__compressed_pairIP7GMatrixNS_9allocatorIS1_EEE5firstB7v160006Ev, symObjAddr: 0xAF80, symBinAddr: 0x100028A20, symSize: 0x20 }
  - { offsetInCU: 0x1BB12, offset: 0x4599B, size: 0x8, addend: 0x0, symName: __ZNKSt3__122__compressed_pair_elemIP7GMatrixLi0ELb0EE5__getB7v160006Ev, symObjAddr: 0xAFA0, symBinAddr: 0x100028A40, symSize: 0x10 }
  - { offsetInCU: 0x1BB4F, offset: 0x459D8, size: 0x8, addend: 0x0, symName: __ZNSt3__16vectorI7GMatrixNS_9allocatorIS1_EEE21_ConstructTransactionC1B7v160006ERS4_m, symObjAddr: 0xAFB0, symBinAddr: 0x100028A50, symSize: 0x30 }
  - { offsetInCU: 0x1BB96, offset: 0x45A1F, size: 0x8, addend: 0x0, symName: __ZNSt3__16vectorI7GMatrixNS_9allocatorIS1_EEE21_ConstructTransactionD1B7v160006Ev, symObjAddr: 0xB010, symBinAddr: 0x100028AB0, symSize: 0x20 }
  - { offsetInCU: 0x1BBBF, offset: 0x45A48, size: 0x8, addend: 0x0, symName: __ZNSt3__16vectorI7GMatrixNS_9allocatorIS1_EEE21_ConstructTransactionC2B7v160006ERS4_m, symObjAddr: 0xB030, symBinAddr: 0x100028AD0, symSize: 0x40 }
  - { offsetInCU: 0x1BC29, offset: 0x45AB2, size: 0x8, addend: 0x0, symName: __ZNKSt3__114__copy_trivialclB7v160006IK7GMatrixS2_Li0EEENS_4pairIPT_PT0_EES6_S6_S8_, symObjAddr: 0xB230, symBinAddr: 0x100028CD0, symSize: 0x40 }
  - { offsetInCU: 0x1BCAD, offset: 0x45B36, size: 0x8, addend: 0x0, symName: __ZNSt3__14pairIPK7GMatrixS3_EC1B7v160006IS3_S3_LPv0EEEOT_OT0_, symObjAddr: 0xB380, symBinAddr: 0x100028E20, symSize: 0x30 }
  - { offsetInCU: 0x1BD0A, offset: 0x45B93, size: 0x8, addend: 0x0, symName: __ZNSt3__14pairIPK7GMatrixS3_EC2B7v160006IS3_S3_LPv0EEEOT_OT0_, symObjAddr: 0xB3B0, symBinAddr: 0x100028E50, symSize: 0x30 }
  - { offsetInCU: 0x1BD67, offset: 0x45BF0, size: 0x8, addend: 0x0, symName: __ZNSt3__118__unwrap_iter_implIPK7GMatrixLb1EE8__unwrapB7v160006ES3_, symObjAddr: 0xB3E0, symBinAddr: 0x100028E80, symSize: 0x20 }
  - { offsetInCU: 0x1BD94, offset: 0x45C1D, size: 0x8, addend: 0x0, symName: __ZNSt3__14pairIPK7GMatrixPS1_EC1B7v160006IRS3_S4_LPv0EEEOT_OT0_, symObjAddr: 0xB4D0, symBinAddr: 0x100028F70, symSize: 0x30 }
  - { offsetInCU: 0x1BDF1, offset: 0x45C7A, size: 0x8, addend: 0x0, symName: __ZNSt3__14pairIPK7GMatrixPS1_EC2B7v160006IRS3_S4_LPv0EEEOT_OT0_, symObjAddr: 0xB500, symBinAddr: 0x100028FA0, symSize: 0x30 }
  - { offsetInCU: 0x1BE4E, offset: 0x45CD7, size: 0x8, addend: 0x0, symName: __ZNSt3__118__unwrap_iter_implIP7GMatrixLb1EE8__unwrapB7v160006ES2_, symObjAddr: 0xB530, symBinAddr: 0x100028FD0, symSize: 0x20 }
  - { offsetInCU: 0x1BE71, offset: 0x45CFA, size: 0x8, addend: 0x0, symName: __ZNSt3__14pairIPK7GMatrixPS1_EC1B7v160006IS3_S4_LPv0EEEOT_OT0_, symObjAddr: 0xB550, symBinAddr: 0x100028FF0, symSize: 0x30 }
  - { offsetInCU: 0x1BECE, offset: 0x45D57, size: 0x8, addend: 0x0, symName: __ZNSt3__14pairIPK7GMatrixPS1_EC2B7v160006IS3_S4_LPv0EEEOT_OT0_, symObjAddr: 0xB580, symBinAddr: 0x100029020, symSize: 0x30 }
  - { offsetInCU: 0x1BF2B, offset: 0x45DB4, size: 0x8, addend: 0x0, symName: __ZNSt3__118__unwrap_iter_implIPK7GMatrixLb1EE8__rewrapB7v160006ES3_S3_, symObjAddr: 0xB5F0, symBinAddr: 0x100029090, symSize: 0x60 }
  - { offsetInCU: 0x1BF5C, offset: 0x45DE5, size: 0x8, addend: 0x0, symName: __ZNSt3__118__unwrap_iter_implIP7GMatrixLb1EE8__rewrapB7v160006ES2_S2_, symObjAddr: 0xB650, symBinAddr: 0x1000290F0, symSize: 0x60 }
  - { offsetInCU: 0x1BF8D, offset: 0x45E16, size: 0x8, addend: 0x0, symName: __ZNSt3__16vectorI7GMatrixNS_9allocatorIS1_EEE21_ConstructTransactionD2B7v160006Ev, symObjAddr: 0xB6B0, symBinAddr: 0x100029150, symSize: 0x20 }
  - { offsetInCU: 0x1BFB6, offset: 0x45E3F, size: 0x8, addend: 0x0, symName: __ZNSt3__128__exception_guard_exceptionsINS_6vectorI7GMatrixNS_9allocatorIS2_EEE16__destroy_vectorEED2B7v160006Ev, symObjAddr: 0xB6D0, symBinAddr: 0x100029170, symSize: 0x40 }
  - { offsetInCU: 0x1BFDF, offset: 0x45E68, size: 0x8, addend: 0x0, symName: __ZNSt3__16vectorI7GMatrixNS_9allocatorIS1_EEE16__destroy_vectorclB7v160006Ev, symObjAddr: 0xB710, symBinAddr: 0x1000291B0, symSize: 0x90 }
  - { offsetInCU: 0x1C003, offset: 0x45E8C, size: 0x8, addend: 0x0, symName: __ZNKSt3__16vectorI7GMatrixNS_9allocatorIS1_EEE17__annotate_deleteB7v160006Ev, symObjAddr: 0xB7A0, symBinAddr: 0x100029240, symSize: 0xB0 }
  - { offsetInCU: 0x1C027, offset: 0x45EB0, size: 0x8, addend: 0x0, symName: __ZNSt3__16vectorI7GMatrixNS_9allocatorIS1_EEE7__clearB7v160006Ev, symObjAddr: 0xB860, symBinAddr: 0x100029300, symSize: 0x20 }
  - { offsetInCU: 0x1C04B, offset: 0x45ED4, size: 0x8, addend: 0x0, symName: __ZNSt3__116allocator_traitsINS_9allocatorI7GMatrixEEE10deallocateB7v160006ERS3_PS2_m, symObjAddr: 0xB880, symBinAddr: 0x100029320, symSize: 0x30 }
  - { offsetInCU: 0x1C08D, offset: 0x45F16, size: 0x8, addend: 0x0, symName: __ZNSt3__16vectorI7GMatrixNS_9allocatorIS1_EEE22__base_destruct_at_endB7v160006EPS1_, symObjAddr: 0xB8B0, symBinAddr: 0x100029350, symSize: 0x80 }
  - { offsetInCU: 0x1C0CF, offset: 0x45F58, size: 0x8, addend: 0x0, symName: __ZNSt3__116allocator_traitsINS_9allocatorI7GMatrixEEE7destroyB7v160006IS2_vEEvRS3_PT_, symObjAddr: 0xB930, symBinAddr: 0x1000293D0, symSize: 0x30 }
  - { offsetInCU: 0x1C10C, offset: 0x45F95, size: 0x8, addend: 0x0, symName: __ZNSt3__19allocatorI7GMatrixE7destroyB7v160006EPS1_, symObjAddr: 0xB960, symBinAddr: 0x100029400, symSize: 0x10 }
  - { offsetInCU: 0x1C13E, offset: 0x45FC7, size: 0x8, addend: 0x0, symName: __ZNSt3__19allocatorI7GMatrixE10deallocateB7v160006EPS1_m, symObjAddr: 0xB970, symBinAddr: 0x100029410, symSize: 0x50 }
  - { offsetInCU: 0x1C17E, offset: 0x46007, size: 0x8, addend: 0x0, symName: __ZNKSt3__111__wrap_iterIP7GMatrixEplB7v160006El, symObjAddr: 0xB9C0, symBinAddr: 0x100029460, symSize: 0x40 }
  - { offsetInCU: 0x1C1BE, offset: 0x46047, size: 0x8, addend: 0x0, symName: __ZNSt3__111__wrap_iterIP7GMatrixEpLB7v160006El, symObjAddr: 0xBA00, symBinAddr: 0x1000294A0, symSize: 0x20 }
  - { offsetInCU: 0x1C1F0, offset: 0x46079, size: 0x8, addend: 0x0, symName: __ZNSt3__111__wrap_iterIPK7GMatrixEC2B7v160006IPS1_EERKNS0_IT_EEPNS_9enable_ifIXsr14is_convertibleIS7_S3_EE5valueEvE4typeE, symObjAddr: 0xBA20, symBinAddr: 0x1000294C0, symSize: 0x40 }
  - { offsetInCU: 0x1C23A, offset: 0x460C3, size: 0x8, addend: 0x0, symName: __ZNKSt3__111__wrap_iterIP7GMatrixE4baseB7v160006Ev, symObjAddr: 0xBA60, symBinAddr: 0x100029500, symSize: 0x20 }
  - { offsetInCU: 0x1C25E, offset: 0x460E7, size: 0x8, addend: 0x0, symName: __ZN5GPathC2ERKS_, symObjAddr: 0xBA80, symBinAddr: 0x100029520, symSize: 0x60 }
  - { offsetInCU: 0x1C291, offset: 0x4611A, size: 0x8, addend: 0x0, symName: __ZNSt3__16vectorI6GPointNS_9allocatorIS1_EEEC1ERKS4_, symObjAddr: 0xBAE0, symBinAddr: 0x100029580, symSize: 0x30 }
  - { offsetInCU: 0x1C2CB, offset: 0x46154, size: 0x8, addend: 0x0, symName: __ZNSt3__16vectorIN5GPath4VerbENS_9allocatorIS2_EEEC1ERKS5_, symObjAddr: 0xBB10, symBinAddr: 0x1000295B0, symSize: 0x30 }
  - { offsetInCU: 0x1C305, offset: 0x4618E, size: 0x8, addend: 0x0, symName: __ZNSt3__16vectorI6GPointNS_9allocatorIS1_EEEC2ERKS4_, symObjAddr: 0xBB60, symBinAddr: 0x1000295E0, symSize: 0x110 }
  - { offsetInCU: 0x1C36F, offset: 0x461F8, size: 0x8, addend: 0x0, symName: __ZNSt3__116allocator_traitsINS_9allocatorI6GPointEEE37select_on_container_copy_constructionB7v160006IS3_vvEES3_RKS3_, symObjAddr: 0xBC70, symBinAddr: 0x1000296F0, symSize: 0x10 }
  - { offsetInCU: 0x1C3A3, offset: 0x4622C, size: 0x8, addend: 0x0, symName: __ZNSt3__117__compressed_pairIP6GPointNS_9allocatorIS1_EEEC1B7v160006IDnS4_EEOT_OT0_, symObjAddr: 0xBCA0, symBinAddr: 0x100029700, symSize: 0x30 }
  - { offsetInCU: 0x1C3FA, offset: 0x46283, size: 0x8, addend: 0x0, symName: __ZNSt3__128__exception_guard_exceptionsINS_6vectorI6GPointNS_9allocatorIS2_EEE16__destroy_vectorEE10__completeB7v160006Ev, symObjAddr: 0xBEA0, symBinAddr: 0x100029770, symSize: 0x20 }
  - { offsetInCU: 0x1C41E, offset: 0x462A7, size: 0x8, addend: 0x0, symName: __ZNSt3__128__exception_guard_exceptionsINS_6vectorI6GPointNS_9allocatorIS2_EEE16__destroy_vectorEED1B7v160006Ev, symObjAddr: 0xBEC0, symBinAddr: 0x100029790, symSize: 0x20 }
  - { offsetInCU: 0x1C447, offset: 0x462D0, size: 0x8, addend: 0x0, symName: __ZNSt3__117__compressed_pairIP6GPointNS_9allocatorIS1_EEEC2B7v160006IDnS4_EEOT_OT0_, symObjAddr: 0xBF10, symBinAddr: 0x1000297B0, symSize: 0x40 }
  - { offsetInCU: 0x1C49E, offset: 0x46327, size: 0x8, addend: 0x0, symName: __ZNSt3__122__compressed_pair_elemINS_9allocatorI6GPointEELi1ELb1EEC2B7v160006IS3_vEEOT_, symObjAddr: 0xBF70, symBinAddr: 0x1000297F0, symSize: 0x10 }
  - { offsetInCU: 0x1C4DF, offset: 0x46368, size: 0x8, addend: 0x0, symName: __ZNSt3__128__exception_guard_exceptionsINS_6vectorI6GPointNS_9allocatorIS2_EEE16__destroy_vectorEEC1B7v160006ES6_, symObjAddr: 0xBF80, symBinAddr: 0x100029800, symSize: 0x30 }
  - { offsetInCU: 0x1C516, offset: 0x4639F, size: 0x8, addend: 0x0, symName: __ZNSt3__128__exception_guard_exceptionsINS_6vectorI6GPointNS_9allocatorIS2_EEE16__destroy_vectorEEC2B7v160006ES6_, symObjAddr: 0xBFB0, symBinAddr: 0x100029830, symSize: 0x20 }
  - { offsetInCU: 0x1C566, offset: 0x463EF, size: 0x8, addend: 0x0, symName: __ZNSt3__128__exception_guard_exceptionsINS_6vectorI6GPointNS_9allocatorIS2_EEE16__destroy_vectorEED2B7v160006Ev, symObjAddr: 0xC9D0, symBinAddr: 0x100029850, symSize: 0x40 }
  - { offsetInCU: 0x1C58F, offset: 0x46418, size: 0x8, addend: 0x0, symName: __ZNSt3__16vectorIN5GPath4VerbENS_9allocatorIS2_EEEC2ERKS5_, symObjAddr: 0xCC70, symBinAddr: 0x100029890, symSize: 0x110 }
  - { offsetInCU: 0x1C5F9, offset: 0x46482, size: 0x8, addend: 0x0, symName: __ZNSt3__116allocator_traitsINS_9allocatorIN5GPath4VerbEEEE37select_on_container_copy_constructionB7v160006IS4_vvEES4_RKS4_, symObjAddr: 0xCD80, symBinAddr: 0x1000299A0, symSize: 0x10 }
  - { offsetInCU: 0x1C62D, offset: 0x464B6, size: 0x8, addend: 0x0, symName: __ZNSt3__117__compressed_pairIPN5GPath4VerbENS_9allocatorIS2_EEEC1B7v160006IDnS5_EEOT_OT0_, symObjAddr: 0xCDB0, symBinAddr: 0x1000299B0, symSize: 0x30 }
  - { offsetInCU: 0x1C684, offset: 0x4650D, size: 0x8, addend: 0x0, symName: __ZNSt3__128__exception_guard_exceptionsINS_6vectorIN5GPath4VerbENS_9allocatorIS3_EEE16__destroy_vectorEE10__completeB7v160006Ev, symObjAddr: 0xCFB0, symBinAddr: 0x100029A20, symSize: 0x20 }
  - { offsetInCU: 0x1C6A8, offset: 0x46531, size: 0x8, addend: 0x0, symName: __ZNSt3__128__exception_guard_exceptionsINS_6vectorIN5GPath4VerbENS_9allocatorIS3_EEE16__destroy_vectorEED1B7v160006Ev, symObjAddr: 0xCFD0, symBinAddr: 0x100029A40, symSize: 0x20 }
  - { offsetInCU: 0x1C6D1, offset: 0x4655A, size: 0x8, addend: 0x0, symName: __ZNSt3__117__compressed_pairIPN5GPath4VerbENS_9allocatorIS2_EEEC2B7v160006IDnS5_EEOT_OT0_, symObjAddr: 0xD020, symBinAddr: 0x100029A60, symSize: 0x40 }
  - { offsetInCU: 0x1C728, offset: 0x465B1, size: 0x8, addend: 0x0, symName: __ZNSt3__122__compressed_pair_elemINS_9allocatorIN5GPath4VerbEEELi1ELb1EEC2B7v160006IS4_vEEOT_, symObjAddr: 0xD080, symBinAddr: 0x100029AA0, symSize: 0x10 }
  - { offsetInCU: 0x1C769, offset: 0x465F2, size: 0x8, addend: 0x0, symName: __ZNSt3__128__exception_guard_exceptionsINS_6vectorIN5GPath4VerbENS_9allocatorIS3_EEE16__destroy_vectorEEC1B7v160006ES7_, symObjAddr: 0xD090, symBinAddr: 0x100029AB0, symSize: 0x30 }
  - { offsetInCU: 0x1C7A0, offset: 0x46629, size: 0x8, addend: 0x0, symName: __ZNSt3__128__exception_guard_exceptionsINS_6vectorIN5GPath4VerbENS_9allocatorIS3_EEE16__destroy_vectorEEC2B7v160006ES7_, symObjAddr: 0xD0C0, symBinAddr: 0x100029AE0, symSize: 0x20 }
  - { offsetInCU: 0x1C7F0, offset: 0x46679, size: 0x8, addend: 0x0, symName: __ZNSt3__128__exception_guard_exceptionsINS_6vectorIN5GPath4VerbENS_9allocatorIS3_EEE16__destroy_vectorEED2B7v160006Ev, symObjAddr: 0xDAE0, symBinAddr: 0x100029B00, symSize: 0x40 }
  - { offsetInCU: 0x1C828, offset: 0x466B1, size: 0x8, addend: 0x0, symName: __ZNSt19bad_optional_accessC1Ev, symObjAddr: 0xDE30, symBinAddr: 0x100029B80, symSize: 0x20 }
  - { offsetInCU: 0x1C852, offset: 0x466DB, size: 0x8, addend: 0x0, symName: __ZNSt19bad_optional_accessC2Ev, symObjAddr: 0xDE50, symBinAddr: 0x100029BA0, symSize: 0x40 }
  - { offsetInCU: 0x1C87C, offset: 0x46705, size: 0x8, addend: 0x0, symName: __ZNSt9exceptionC2B7v160006Ev, symObjAddr: 0xDE90, symBinAddr: 0x100029BE0, symSize: 0x20 }
  - { offsetInCU: 0x1C8A5, offset: 0x4672E, size: 0x8, addend: 0x0, symName: __ZNSt3__111__wrap_iterIP4EdgeEpLB7v160006El, symObjAddr: 0xDEB0, symBinAddr: 0x100029C00, symSize: 0x20 }
  - { offsetInCU: 0x1C8D7, offset: 0x46760, size: 0x8, addend: 0x0, symName: __ZNSt3__111__wrap_iterIPK4EdgeEC2B7v160006IPS1_EERKNS0_IT_EEPNS_9enable_ifIXsr14is_convertibleIS7_S3_EE5valueEvE4typeE, symObjAddr: 0xDED0, symBinAddr: 0x100029C20, symSize: 0x40 }
  - { offsetInCU: 0x1C921, offset: 0x467AA, size: 0x8, addend: 0x0, symName: __ZNKSt3__111__wrap_iterIP4EdgeE4baseB7v160006Ev, symObjAddr: 0xDF10, symBinAddr: 0x100029C60, symSize: 0x20 }
  - { offsetInCU: 0x1C945, offset: 0x467CE, size: 0x8, addend: 0x0, symName: __ZN8MyCanvasD2Ev, symObjAddr: 0xDF30, symBinAddr: 0x100029C80, symSize: 0x40 }
  - { offsetInCU: 0x1C96F, offset: 0x467F8, size: 0x8, addend: 0x0, symName: __ZNSt3__16vectorI7GMatrixNS_9allocatorIS1_EEED2B7v160006Ev, symObjAddr: 0xDF70, symBinAddr: 0x100029CC0, symSize: 0x40 }
  - { offsetInCU: 0x1C998, offset: 0x46821, size: 0x8, addend: 0x0, symName: __ZNSt3__16vectorI4EdgeNS_9allocatorIS1_EEEC2B7v160006Ev, symObjAddr: 0xDFB0, symBinAddr: 0x100029D00, symSize: 0x60 }
  - { offsetInCU: 0x1C9C1, offset: 0x4684A, size: 0x8, addend: 0x0, symName: __ZNSt3__117__compressed_pairIP4EdgeNS_9allocatorIS1_EEEC1B7v160006IDnNS_18__default_init_tagEEEOT_OT0_, symObjAddr: 0xE010, symBinAddr: 0x100029D60, symSize: 0x30 }
  - { offsetInCU: 0x1CA18, offset: 0x468A1, size: 0x8, addend: 0x0, symName: __ZNSt3__117__compressed_pairIP4EdgeNS_9allocatorIS1_EEEC2B7v160006IDnNS_18__default_init_tagEEEOT_OT0_, symObjAddr: 0xE050, symBinAddr: 0x100029DA0, symSize: 0x40 }
  - { offsetInCU: 0x1CA6F, offset: 0x468F8, size: 0x8, addend: 0x0, symName: __ZNSt3__122__compressed_pair_elemINS_9allocatorI4EdgeEELi1ELb1EEC2B7v160006ENS_18__default_init_tagE, symObjAddr: 0xE090, symBinAddr: 0x100029DE0, symSize: 0x20 }
  - { offsetInCU: 0x1CAA2, offset: 0x4692B, size: 0x8, addend: 0x0, symName: __ZNSt3__19allocatorI4EdgeEC2B7v160006Ev, symObjAddr: 0xE0B0, symBinAddr: 0x100029E00, symSize: 0x20 }
  - { offsetInCU: 0x1CACB, offset: 0x46954, size: 0x8, addend: 0x0, symName: __ZNSt3__116__non_trivial_ifILb1ENS_9allocatorI4EdgeEEEC2B7v160006Ev, symObjAddr: 0xE0D0, symBinAddr: 0x100029E20, symSize: 0x10 }
  - { offsetInCU: 0x1CAF4, offset: 0x4697D, size: 0x8, addend: 0x0, symName: __ZNSt3__16vectorI4EdgeNS_9allocatorIS1_EEED2B7v160006Ev, symObjAddr: 0xE0E0, symBinAddr: 0x100029E30, symSize: 0x40 }
  - { offsetInCU: 0x1CB1D, offset: 0x469A6, size: 0x8, addend: 0x0, symName: __ZNSt3__16vectorI4EdgeNS_9allocatorIS1_EEE16__destroy_vectorC1ERS4_, symObjAddr: 0xE120, symBinAddr: 0x100029E70, symSize: 0x30 }
  - { offsetInCU: 0x1CB55, offset: 0x469DE, size: 0x8, addend: 0x0, symName: __ZNSt3__16vectorI4EdgeNS_9allocatorIS1_EEE16__destroy_vectorclB7v160006Ev, symObjAddr: 0xE150, symBinAddr: 0x100029EA0, symSize: 0x90 }
  - { offsetInCU: 0x1CB79, offset: 0x46A02, size: 0x8, addend: 0x0, symName: __ZNSt3__16vectorI4EdgeNS_9allocatorIS1_EEE16__destroy_vectorC2ERS4_, symObjAddr: 0xE1E0, symBinAddr: 0x100029F30, symSize: 0x20 }
  - { offsetInCU: 0x1CBB1, offset: 0x46A3A, size: 0x8, addend: 0x0, symName: __ZNSt3__16vectorI4EdgeNS_9allocatorIS1_EEE7__clearB7v160006Ev, symObjAddr: 0xE210, symBinAddr: 0x100029F60, symSize: 0x20 }
  - { offsetInCU: 0x1CBD5, offset: 0x46A5E, size: 0x8, addend: 0x0, symName: __ZNSt3__16vectorI4EdgeNS_9allocatorIS1_EEE22__base_destruct_at_endB7v160006EPS1_, symObjAddr: 0xE230, symBinAddr: 0x100029F80, symSize: 0x80 }
  - { offsetInCU: 0x1CC17, offset: 0x46AA0, size: 0x8, addend: 0x0, symName: __ZNSt3__16vectorI4EdgeNS_9allocatorIS1_EEE17__destruct_at_endB7v160006EPS1_, symObjAddr: 0xE2B0, symBinAddr: 0x10002A000, symSize: 0x60 }
  - { offsetInCU: 0x1CC59, offset: 0x46AE2, size: 0x8, addend: 0x0, symName: __ZNSt3__16vectorI4EdgeNS_9allocatorIS1_EEE27__invalidate_iterators_pastB7v160006EPS1_, symObjAddr: 0xE310, symBinAddr: 0x10002A060, symSize: 0x10 }
  - { offsetInCU: 0x1CC8F, offset: 0x46B18, size: 0x8, addend: 0x0, symName: __ZNKSt3__16vectorI4EdgeNS_9allocatorIS1_EEE17__annotate_shrinkB7v160006Em, symObjAddr: 0xE320, symBinAddr: 0x10002A070, symSize: 0xA0 }
  - { offsetInCU: 0x1CCC2, offset: 0x46B4B, size: 0x8, addend: 0x0, symName: __ZNSt3__110unique_ptrI7GShaderNS_14default_deleteIS1_EEEC2B7v160006ILb1EvEEPS1_, symObjAddr: 0xE3C0, symBinAddr: 0x10002A110, symSize: 0x40 }
  - { offsetInCU: 0x1CD09, offset: 0x46B92, size: 0x8, addend: 0x0, symName: __ZNSt3__117__compressed_pairIP7GShaderNS_14default_deleteIS1_EEEC1B7v160006IRS2_NS_16__value_init_tagEEEOT_OT0_, symObjAddr: 0xE400, symBinAddr: 0x10002A150, symSize: 0x30 }
  - { offsetInCU: 0x1CD60, offset: 0x46BE9, size: 0x8, addend: 0x0, symName: __ZNSt3__117__compressed_pairIP7GShaderNS_14default_deleteIS1_EEEC2B7v160006IRS2_NS_16__value_init_tagEEEOT_OT0_, symObjAddr: 0xE430, symBinAddr: 0x10002A180, symSize: 0x40 }
  - { offsetInCU: 0x1CDB7, offset: 0x46C40, size: 0x8, addend: 0x0, symName: __ZNSt3__122__compressed_pair_elemIP7GShaderLi0ELb0EEC2B7v160006IRS2_vEEOT_, symObjAddr: 0xE470, symBinAddr: 0x10002A1C0, symSize: 0x20 }
  - { offsetInCU: 0x1CDF8, offset: 0x46C81, size: 0x8, addend: 0x0, symName: __ZNSt3__122__compressed_pair_elemINS_14default_deleteI7GShaderEELi1ELb1EEC2B7v160006ENS_16__value_init_tagE, symObjAddr: 0xE490, symBinAddr: 0x10002A1E0, symSize: 0x10 }
  - { offsetInCU: 0x1CE2B, offset: 0x46CB4, size: 0x8, addend: 0x0, symName: __ZNSt3__16vectorI4EdgeNS_9allocatorIS1_EEE11__make_iterB7v160006EPS1_, symObjAddr: 0xE4A0, symBinAddr: 0x10002A1F0, symSize: 0x30 }
  - { offsetInCU: 0x1CE5E, offset: 0x46CE7, size: 0x8, addend: 0x0, symName: __ZNSt3__111__wrap_iterIP4EdgeEC1B7v160006EPKvS2_, symObjAddr: 0xE4D0, symBinAddr: 0x10002A220, symSize: 0x30 }
  - { offsetInCU: 0x1CEA3, offset: 0x46D2C, size: 0x8, addend: 0x0, symName: __ZNSt3__111__wrap_iterIP4EdgeEC2B7v160006EPKvS2_, symObjAddr: 0xE500, symBinAddr: 0x10002A250, symSize: 0x20 }
  - { offsetInCU: 0x1CEED, offset: 0x46D76, size: 0x8, addend: 0x0, symName: '__ZNSt3__116_UnwrapAlgPolicyIRZN8MyCanvas17drawConvexPolygonEPK6GPointiRK6GPaintE3$_0E10__get_compB7v160006ES9_', symObjAddr: 0xE6A0, symBinAddr: 0x10002A3F0, symSize: 0x10 }
  - { offsetInCU: 0x1CF1A, offset: 0x46DA3, size: 0x8, addend: 0x0, symName: '__ZZN8MyCanvas17drawConvexPolygonEPK6GPointiRK6GPaintENK3$_0clERK4EdgeS9_', symObjAddr: 0xED80, symBinAddr: 0x10002AAD0, symSize: 0x30 }
  - { offsetInCU: 0x1CF5F, offset: 0x46DE8, size: 0x8, addend: 0x0, symName: __ZNSt3__18_IterOpsINS_17_ClassicAlgPolicyEE9iter_swapB7v160006IRP4EdgeS6_EEvOT_OT0_, symObjAddr: 0xEDB0, symBinAddr: 0x10002AB00, symSize: 0x30 }
  - { offsetInCU: 0x1CFA2, offset: 0x46E2B, size: 0x8, addend: 0x0, symName: __ZNSt3__18_IterOpsINS_17_ClassicAlgPolicyEE11__iter_moveB7v160006IRP4EdgeEENS_9enable_ifIXsr12is_referenceIDTdeclsr3stdE7declvalIRT_EEEEE5valueEDTclsr3stdE4movedeclsr3stdE7declvalIS9_EEEEE4typeEOS8_, symObjAddr: 0xF680, symBinAddr: 0x10002B3D0, symSize: 0x20 }
  - { offsetInCU: 0x1CFCE, offset: 0x46E57, size: 0x8, addend: 0x0, symName: __ZNSt3__18_IterOpsINS_17_ClassicAlgPolicyEE25__validate_iter_referenceB7v160006IRP4EdgeEEvv, symObjAddr: 0xF6A0, symBinAddr: 0x10002B3F0, symSize: 0x10 }
  - { offsetInCU: 0x1CFEC, offset: 0x46E75, size: 0x8, addend: 0x0, symName: __ZNSt3__18_IterOpsINS_17_ClassicAlgPolicyEE4nextB7v160006IP4EdgeEET_S6_S6_, symObjAddr: 0xF6B0, symBinAddr: 0x10002B400, symSize: 0x20 }
  - { offsetInCU: 0x1D022, offset: 0x46EAB, size: 0x8, addend: 0x0, symName: __ZNSt3__118__unwrap_iter_implINS_11__wrap_iterIP4EdgeEELb1EE8__unwrapB7v160006ES4_, symObjAddr: 0xFFD0, symBinAddr: 0x10002BD20, symSize: 0x20 }
  - { offsetInCU: 0x1D04A, offset: 0x46ED3, size: 0x8, addend: 0x0, symName: __ZNSt3__119__to_address_helperINS_11__wrap_iterIP4EdgeEEvE6__callB7v160006ERKS4_, symObjAddr: 0x10010, symBinAddr: 0x10002BD60, symSize: 0x30 }
  - { offsetInCU: 0x1D06D, offset: 0x46EF6, size: 0x8, addend: 0x0, symName: __ZNSt3__114pointer_traitsINS_11__wrap_iterIP4EdgeEEE10to_addressB7v160006ES4_, symObjAddr: 0x10040, symBinAddr: 0x10002BD90, symSize: 0x30 }
  - { offsetInCU: 0x1D091, offset: 0x46F1A, size: 0x8, addend: 0x0, symName: __ZNSt3__16vectorI4EdgeNS_9allocatorIS1_EEEC2ERKS4_, symObjAddr: 0x10070, symBinAddr: 0x10002BDC0, symSize: 0x110 }
  - { offsetInCU: 0x1D0F1, offset: 0x46F7A, size: 0x8, addend: 0x0, symName: __ZNSt3__116allocator_traitsINS_9allocatorI4EdgeEEE37select_on_container_copy_constructionB7v160006IS3_vvEES3_RKS3_, symObjAddr: 0x10180, symBinAddr: 0x10002BED0, symSize: 0x10 }
  - { offsetInCU: 0x1D125, offset: 0x46FAE, size: 0x8, addend: 0x0, symName: __ZNSt3__117__compressed_pairIP4EdgeNS_9allocatorIS1_EEEC1B7v160006IDnS4_EEOT_OT0_, symObjAddr: 0x10190, symBinAddr: 0x10002BEE0, symSize: 0x30 }
  - { offsetInCU: 0x1D17C, offset: 0x47005, size: 0x8, addend: 0x0, symName: __ZNSt3__16vectorI4EdgeNS_9allocatorIS1_EEE11__vallocateB7v160006Em, symObjAddr: 0x10200, symBinAddr: 0x10002BF50, symSize: 0xA0 }
  - { offsetInCU: 0x1D1BE, offset: 0x47047, size: 0x8, addend: 0x0, symName: __ZNSt3__16vectorI4EdgeNS_9allocatorIS1_EEE18__construct_at_endIPS1_Li0EEEvT_S7_m, symObjAddr: 0x102A0, symBinAddr: 0x10002BFF0, symSize: 0x90 }
  - { offsetInCU: 0x1D230, offset: 0x470B9, size: 0x8, addend: 0x0, symName: __ZNSt3__128__exception_guard_exceptionsINS_6vectorI4EdgeNS_9allocatorIS2_EEE16__destroy_vectorEE10__completeB7v160006Ev, symObjAddr: 0x10330, symBinAddr: 0x10002C080, symSize: 0x20 }
  - { offsetInCU: 0x1D254, offset: 0x470DD, size: 0x8, addend: 0x0, symName: __ZNSt3__128__exception_guard_exceptionsINS_6vectorI4EdgeNS_9allocatorIS2_EEE16__destroy_vectorEED1B7v160006Ev, symObjAddr: 0x10350, symBinAddr: 0x10002C0A0, symSize: 0x20 }
  - { offsetInCU: 0x1D27D, offset: 0x47106, size: 0x8, addend: 0x0, symName: __ZNSt3__117__compressed_pairIP4EdgeNS_9allocatorIS1_EEEC2B7v160006IDnS4_EEOT_OT0_, symObjAddr: 0x10370, symBinAddr: 0x10002C0C0, symSize: 0x40 }
  - { offsetInCU: 0x1D2D4, offset: 0x4715D, size: 0x8, addend: 0x0, symName: __ZNSt3__122__compressed_pair_elemINS_9allocatorI4EdgeEELi1ELb1EEC2B7v160006IS3_vEEOT_, symObjAddr: 0x103B0, symBinAddr: 0x10002C100, symSize: 0x10 }
  - { offsetInCU: 0x1D315, offset: 0x4719E, size: 0x8, addend: 0x0, symName: __ZNSt3__128__exception_guard_exceptionsINS_6vectorI4EdgeNS_9allocatorIS2_EEE16__destroy_vectorEEC1B7v160006ES6_, symObjAddr: 0x103C0, symBinAddr: 0x10002C110, symSize: 0x30 }
  - { offsetInCU: 0x1D34C, offset: 0x471D5, size: 0x8, addend: 0x0, symName: __ZNSt3__128__exception_guard_exceptionsINS_6vectorI4EdgeNS_9allocatorIS2_EEE16__destroy_vectorEEC2B7v160006ES6_, symObjAddr: 0x103F0, symBinAddr: 0x10002C140, symSize: 0x20 }
  - { offsetInCU: 0x1D383, offset: 0x4720C, size: 0x8, addend: 0x0, symName: __ZNSt3__129_AllocatorDestroyRangeReverseINS_9allocatorI4EdgeEEPS2_EC1B7v160006ERS3_RS4_S7_, symObjAddr: 0x10570, symBinAddr: 0x10002C2C0, symSize: 0x40 }
  - { offsetInCU: 0x1D3D9, offset: 0x47262, size: 0x8, addend: 0x0, symName: __ZNSt3__116allocator_traitsINS_9allocatorI4EdgeEEE9constructB7v160006IS2_JRS2_EvEEvRS3_PT_DpOT0_, symObjAddr: 0x105B0, symBinAddr: 0x10002C300, symSize: 0x30 }
  - { offsetInCU: 0x1D430, offset: 0x472B9, size: 0x8, addend: 0x0, symName: __ZNSt3__128__exception_guard_exceptionsINS_29_AllocatorDestroyRangeReverseINS_9allocatorI4EdgeEEPS3_EEE10__completeB7v160006Ev, symObjAddr: 0x105E0, symBinAddr: 0x10002C330, symSize: 0x20 }
  - { offsetInCU: 0x1D454, offset: 0x472DD, size: 0x8, addend: 0x0, symName: __ZNSt3__128__exception_guard_exceptionsINS_29_AllocatorDestroyRangeReverseINS_9allocatorI4EdgeEEPS3_EEED1B7v160006Ev, symObjAddr: 0x10600, symBinAddr: 0x10002C350, symSize: 0x20 }
  - { offsetInCU: 0x1D47D, offset: 0x47306, size: 0x8, addend: 0x0, symName: __ZNSt3__128__exception_guard_exceptionsINS_29_AllocatorDestroyRangeReverseINS_9allocatorI4EdgeEEPS3_EEEC1B7v160006ES6_, symObjAddr: 0x10620, symBinAddr: 0x10002C370, symSize: 0x40 }
  - { offsetInCU: 0x1D4B4, offset: 0x4733D, size: 0x8, addend: 0x0, symName: __ZNSt3__128__exception_guard_exceptionsINS_29_AllocatorDestroyRangeReverseINS_9allocatorI4EdgeEEPS3_EEEC2B7v160006ES6_, symObjAddr: 0x10660, symBinAddr: 0x10002C3B0, symSize: 0x30 }
  - { offsetInCU: 0x1D4EB, offset: 0x47374, size: 0x8, addend: 0x0, symName: __ZNSt3__129_AllocatorDestroyRangeReverseINS_9allocatorI4EdgeEEPS2_EC2B7v160006ERS3_RS4_S7_, symObjAddr: 0x10690, symBinAddr: 0x10002C3E0, symSize: 0x40 }
  - { offsetInCU: 0x1D541, offset: 0x473CA, size: 0x8, addend: 0x0, symName: __ZNSt3__19allocatorI4EdgeE9constructB7v160006IS1_JRS1_EEEvPT_DpOT0_, symObjAddr: 0x106D0, symBinAddr: 0x10002C420, symSize: 0x30 }
  - { offsetInCU: 0x1D595, offset: 0x4741E, size: 0x8, addend: 0x0, symName: __ZNSt3__128__exception_guard_exceptionsINS_29_AllocatorDestroyRangeReverseINS_9allocatorI4EdgeEEPS3_EEED2B7v160006Ev, symObjAddr: 0x10700, symBinAddr: 0x10002C450, symSize: 0x40 }
  - { offsetInCU: 0x1D5BE, offset: 0x47447, size: 0x8, addend: 0x0, symName: __ZNKSt3__129_AllocatorDestroyRangeReverseINS_9allocatorI4EdgeEEPS2_EclB7v160006Ev, symObjAddr: 0x10740, symBinAddr: 0x10002C490, symSize: 0x60 }
  - { offsetInCU: 0x1D5E7, offset: 0x47470, size: 0x8, addend: 0x0, symName: __ZNSt3__119__to_address_helperINS_16reverse_iteratorIP4EdgeEEvE6__callB7v160006ERKS4_, symObjAddr: 0x10830, symBinAddr: 0x10002C580, symSize: 0x40 }
  - { offsetInCU: 0x1D60A, offset: 0x47493, size: 0x8, addend: 0x0, symName: __ZNKSt3__116reverse_iteratorIP4EdgeEptB7v160006Ev, symObjAddr: 0x10870, symBinAddr: 0x10002C5C0, symSize: 0x20 }
  - { offsetInCU: 0x1D62E, offset: 0x474B7, size: 0x8, addend: 0x0, symName: __ZNSt3__128__exception_guard_exceptionsINS_6vectorI4EdgeNS_9allocatorIS2_EEE16__destroy_vectorEED2B7v160006Ev, symObjAddr: 0x10890, symBinAddr: 0x10002C5E0, symSize: 0x40 }
  - { offsetInCU: 0x1D657, offset: 0x474E0, size: 0x8, addend: 0x0, symName: __ZNSt3__16vectorI7GMatrixNS_9allocatorIS1_EEEC2ERKS4_, symObjAddr: 0x108D0, symBinAddr: 0x10002C620, symSize: 0x110 }
  - { offsetInCU: 0x1D6B7, offset: 0x47540, size: 0x8, addend: 0x0, symName: __ZNSt3__116allocator_traitsINS_9allocatorI7GMatrixEEE37select_on_container_copy_constructionB7v160006IS3_vvEES3_RKS3_, symObjAddr: 0x109E0, symBinAddr: 0x10002C730, symSize: 0x10 }
  - { offsetInCU: 0x1D6EB, offset: 0x47574, size: 0x8, addend: 0x0, symName: __ZNSt3__117__compressed_pairIP7GMatrixNS_9allocatorIS1_EEEC1B7v160006IDnS4_EEOT_OT0_, symObjAddr: 0x109F0, symBinAddr: 0x10002C740, symSize: 0x30 }
  - { offsetInCU: 0x1D742, offset: 0x475CB, size: 0x8, addend: 0x0, symName: __ZNSt3__16vectorI7GMatrixNS_9allocatorIS1_EEE18__construct_at_endIPS1_Li0EEEvT_S7_m, symObjAddr: 0x10A20, symBinAddr: 0x10002C770, symSize: 0x90 }
  - { offsetInCU: 0x1D7B4, offset: 0x4763D, size: 0x8, addend: 0x0, symName: __ZNSt3__117__compressed_pairIP7GMatrixNS_9allocatorIS1_EEEC2B7v160006IDnS4_EEOT_OT0_, symObjAddr: 0x10AB0, symBinAddr: 0x10002C800, symSize: 0x40 }
  - { offsetInCU: 0x1D80B, offset: 0x47694, size: 0x8, addend: 0x0, symName: __ZNSt3__122__compressed_pair_elemINS_9allocatorI7GMatrixEELi1ELb1EEC2B7v160006IS3_vEEOT_, symObjAddr: 0x10AF0, symBinAddr: 0x10002C840, symSize: 0x10 }
  - { offsetInCU: 0x1D84C, offset: 0x476D5, size: 0x8, addend: 0x0, symName: __ZNSt3__129_AllocatorDestroyRangeReverseINS_9allocatorI7GMatrixEEPS2_EC1B7v160006ERS3_RS4_S7_, symObjAddr: 0x10C60, symBinAddr: 0x10002C9B0, symSize: 0x40 }
  - { offsetInCU: 0x1D8A2, offset: 0x4772B, size: 0x8, addend: 0x0, symName: __ZNSt3__116allocator_traitsINS_9allocatorI7GMatrixEEE9constructB7v160006IS2_JRS2_EvEEvRS3_PT_DpOT0_, symObjAddr: 0x10CA0, symBinAddr: 0x10002C9F0, symSize: 0x30 }
  - { offsetInCU: 0x1D8F9, offset: 0x47782, size: 0x8, addend: 0x0, symName: __ZNSt3__128__exception_guard_exceptionsINS_29_AllocatorDestroyRangeReverseINS_9allocatorI7GMatrixEEPS3_EEE10__completeB7v160006Ev, symObjAddr: 0x10CD0, symBinAddr: 0x10002CA20, symSize: 0x20 }
  - { offsetInCU: 0x1D91D, offset: 0x477A6, size: 0x8, addend: 0x0, symName: __ZNSt3__128__exception_guard_exceptionsINS_29_AllocatorDestroyRangeReverseINS_9allocatorI7GMatrixEEPS3_EEED1B7v160006Ev, symObjAddr: 0x10CF0, symBinAddr: 0x10002CA40, symSize: 0x20 }
  - { offsetInCU: 0x1D946, offset: 0x477CF, size: 0x8, addend: 0x0, symName: __ZNSt3__128__exception_guard_exceptionsINS_29_AllocatorDestroyRangeReverseINS_9allocatorI7GMatrixEEPS3_EEEC1B7v160006ES6_, symObjAddr: 0x10D10, symBinAddr: 0x10002CA60, symSize: 0x40 }
  - { offsetInCU: 0x1D97D, offset: 0x47806, size: 0x8, addend: 0x0, symName: __ZNSt3__128__exception_guard_exceptionsINS_29_AllocatorDestroyRangeReverseINS_9allocatorI7GMatrixEEPS3_EEEC2B7v160006ES6_, symObjAddr: 0x10D50, symBinAddr: 0x10002CAA0, symSize: 0x30 }
  - { offsetInCU: 0x1D9B4, offset: 0x4783D, size: 0x8, addend: 0x0, symName: __ZNSt3__129_AllocatorDestroyRangeReverseINS_9allocatorI7GMatrixEEPS2_EC2B7v160006ERS3_RS4_S7_, symObjAddr: 0x10D80, symBinAddr: 0x10002CAD0, symSize: 0x40 }
  - { offsetInCU: 0x1DA0A, offset: 0x47893, size: 0x8, addend: 0x0, symName: __ZNSt3__19allocatorI7GMatrixE9constructB7v160006IS1_JRS1_EEEvPT_DpOT0_, symObjAddr: 0x10DC0, symBinAddr: 0x10002CB10, symSize: 0x30 }
  - { offsetInCU: 0x1DA5E, offset: 0x478E7, size: 0x8, addend: 0x0, symName: __ZNSt3__128__exception_guard_exceptionsINS_29_AllocatorDestroyRangeReverseINS_9allocatorI7GMatrixEEPS3_EEED2B7v160006Ev, symObjAddr: 0x10DF0, symBinAddr: 0x10002CB40, symSize: 0x40 }
  - { offsetInCU: 0x1DA87, offset: 0x47910, size: 0x8, addend: 0x0, symName: __ZNKSt3__129_AllocatorDestroyRangeReverseINS_9allocatorI7GMatrixEEPS2_EclB7v160006Ev, symObjAddr: 0x10E30, symBinAddr: 0x10002CB80, symSize: 0x60 }
  - { offsetInCU: 0x1DAAB, offset: 0x47934, size: 0x8, addend: 0x0, symName: __ZNSt3__116reverse_iteratorIP7GMatrixEC1B7v160006ES2_, symObjAddr: 0x10F00, symBinAddr: 0x10002CC50, symSize: 0x30 }
  - { offsetInCU: 0x1DAE2, offset: 0x4796B, size: 0x8, addend: 0x0, symName: __ZNSt3__116reverse_iteratorIP7GMatrixEppB7v160006Ev, symObjAddr: 0x10F90, symBinAddr: 0x10002CCE0, symSize: 0x20 }
  - { offsetInCU: 0x1DB06, offset: 0x4798F, size: 0x8, addend: 0x0, symName: __ZNKSt3__116reverse_iteratorIP7GMatrixE4baseB7v160006Ev, symObjAddr: 0x10FB0, symBinAddr: 0x10002CD00, symSize: 0x20 }
  - { offsetInCU: 0x1DB2F, offset: 0x479B8, size: 0x8, addend: 0x0, symName: __ZNSt3__119__to_address_helperINS_16reverse_iteratorIP7GMatrixEEvE6__callB7v160006ERKS4_, symObjAddr: 0x10FD0, symBinAddr: 0x10002CD20, symSize: 0x40 }
  - { offsetInCU: 0x1DB52, offset: 0x479DB, size: 0x8, addend: 0x0, symName: __ZNKSt3__116reverse_iteratorIP7GMatrixEptB7v160006Ev, symObjAddr: 0x11010, symBinAddr: 0x10002CD60, symSize: 0x20 }
  - { offsetInCU: 0x1DB76, offset: 0x479FF, size: 0x8, addend: 0x0, symName: __ZNKSt3__116reverse_iteratorIP7GMatrixEdeB7v160006Ev, symObjAddr: 0x11030, symBinAddr: 0x10002CD80, symSize: 0x30 }
  - { offsetInCU: 0x1DBA8, offset: 0x47A31, size: 0x8, addend: 0x0, symName: __ZNSt3__116reverse_iteratorIP7GMatrixEC2B7v160006ES2_, symObjAddr: 0x11060, symBinAddr: 0x10002CDB0, symSize: 0x30 }
  - { offsetInCU: 0x1DBDF, offset: 0x47A68, size: 0x8, addend: 0x0, symName: __ZNSt3__110unique_ptrI7GCanvasNS_14default_deleteIS1_EEEC2B7v160006ILb1EvEEPS1_, symObjAddr: 0x11090, symBinAddr: 0x10002CDE0, symSize: 0x40 }
  - { offsetInCU: 0x1DC21, offset: 0x47AAA, size: 0x8, addend: 0x0, symName: __ZNSt3__117__compressed_pairIP7GCanvasNS_14default_deleteIS1_EEEC1B7v160006IRS2_NS_16__value_init_tagEEEOT_OT0_, symObjAddr: 0x110D0, symBinAddr: 0x10002CE20, symSize: 0x30 }
  - { offsetInCU: 0x1DC78, offset: 0x47B01, size: 0x8, addend: 0x0, symName: __ZNSt3__117__compressed_pairIP7GCanvasNS_14default_deleteIS1_EEEC2B7v160006IRS2_NS_16__value_init_tagEEEOT_OT0_, symObjAddr: 0x11100, symBinAddr: 0x10002CE50, symSize: 0x40 }
  - { offsetInCU: 0x1DCCF, offset: 0x47B58, size: 0x8, addend: 0x0, symName: __ZNSt3__122__compressed_pair_elemIP7GCanvasLi0ELb0EEC2B7v160006IRS2_vEEOT_, symObjAddr: 0x11140, symBinAddr: 0x10002CE90, symSize: 0x20 }
  - { offsetInCU: 0x1DD10, offset: 0x47B99, size: 0x8, addend: 0x0, symName: __ZNSt3__122__compressed_pair_elemINS_14default_deleteI7GCanvasEELi1ELb1EEC2B7v160006ENS_16__value_init_tagE, symObjAddr: 0x11160, symBinAddr: 0x10002CEB0, symSize: 0x10 }
  - { offsetInCU: 0x1DD43, offset: 0x47BCC, size: 0x8, addend: 0x0, symName: __ZNSt3__16vectorI7GMatrixNS_9allocatorIS1_EEE22__construct_one_at_endB7v160006IJRKS1_EEEvDpOT_, symObjAddr: 0x11170, symBinAddr: 0x10002CEC0, symSize: 0x90 }
  - { offsetInCU: 0x1DD90, offset: 0x47C19, size: 0x8, addend: 0x0, symName: __ZNSt3__16vectorI7GMatrixNS_9allocatorIS1_EEE21__push_back_slow_pathIRKS1_EEvOT_, symObjAddr: 0x11200, symBinAddr: 0x10002CF50, symSize: 0xD0 }
  - { offsetInCU: 0x1DDED, offset: 0x47C76, size: 0x8, addend: 0x0, symName: __ZNSt3__116allocator_traitsINS_9allocatorI7GMatrixEEE9constructB7v160006IS2_JRKS2_EvEEvRS3_PT_DpOT0_, symObjAddr: 0x112D0, symBinAddr: 0x10002D020, symSize: 0x30 }
  - { offsetInCU: 0x1DE44, offset: 0x47CCD, size: 0x8, addend: 0x0, symName: __ZNSt3__19allocatorI7GMatrixE9constructB7v160006IS1_JRKS1_EEEvPT_DpOT0_, symObjAddr: 0x11300, symBinAddr: 0x10002D050, symSize: 0x30 }
  - { offsetInCU: 0x1DE98, offset: 0x47D21, size: 0x8, addend: 0x0, symName: __ZNKSt3__16vectorI7GMatrixNS_9allocatorIS1_EEE11__recommendB7v160006Em, symObjAddr: 0x11330, symBinAddr: 0x10002D080, symSize: 0xA0 }
  - { offsetInCU: 0x1DEEC, offset: 0x47D75, size: 0x8, addend: 0x0, symName: __ZNSt3__114__split_bufferI7GMatrixRNS_9allocatorIS1_EEEC1EmmS4_, symObjAddr: 0x113D0, symBinAddr: 0x10002D120, symSize: 0x40 }
  - { offsetInCU: 0x1DF41, offset: 0x47DCA, size: 0x8, addend: 0x0, symName: __ZNSt3__114__split_bufferI7GMatrixRNS_9allocatorIS1_EEED1Ev, symObjAddr: 0x11540, symBinAddr: 0x10002D290, symSize: 0x20 }
  - { offsetInCU: 0x1DF6C, offset: 0x47DF5, size: 0x8, addend: 0x0, symName: __ZNSt3__114__split_bufferI7GMatrixRNS_9allocatorIS1_EEEC2EmmS4_, symObjAddr: 0x11560, symBinAddr: 0x10002D2B0, symSize: 0xC0 }
  - { offsetInCU: 0x1DFDE, offset: 0x47E67, size: 0x8, addend: 0x0, symName: __ZNSt3__117__compressed_pairIP7GMatrixRNS_9allocatorIS1_EEEC1B7v160006IDnS5_EEOT_OT0_, symObjAddr: 0x11620, symBinAddr: 0x10002D370, symSize: 0x30 }
  - { offsetInCU: 0x1E035, offset: 0x47EBE, size: 0x8, addend: 0x0, symName: __ZNSt3__114__split_bufferI7GMatrixRNS_9allocatorIS1_EEE7__allocB7v160006Ev, symObjAddr: 0x11650, symBinAddr: 0x10002D3A0, symSize: 0x20 }
  - { offsetInCU: 0x1E059, offset: 0x47EE2, size: 0x8, addend: 0x0, symName: __ZNSt3__114__split_bufferI7GMatrixRNS_9allocatorIS1_EEE9__end_capB7v160006Ev, symObjAddr: 0x11670, symBinAddr: 0x10002D3C0, symSize: 0x20 }
  - { offsetInCU: 0x1E07D, offset: 0x47F06, size: 0x8, addend: 0x0, symName: __ZNSt3__117__compressed_pairIP7GMatrixRNS_9allocatorIS1_EEEC2B7v160006IDnS5_EEOT_OT0_, symObjAddr: 0x11690, symBinAddr: 0x10002D3E0, symSize: 0x40 }
  - { offsetInCU: 0x1E0D4, offset: 0x47F5D, size: 0x8, addend: 0x0, symName: __ZNSt3__122__compressed_pair_elemIRNS_9allocatorI7GMatrixEELi1ELb0EEC2B7v160006IS4_vEEOT_, symObjAddr: 0x116D0, symBinAddr: 0x10002D420, symSize: 0x20 }
  - { offsetInCU: 0x1E115, offset: 0x47F9E, size: 0x8, addend: 0x0, symName: __ZNSt3__117__compressed_pairIP7GMatrixRNS_9allocatorIS1_EEE6secondB7v160006Ev, symObjAddr: 0x116F0, symBinAddr: 0x10002D440, symSize: 0x20 }
  - { offsetInCU: 0x1E139, offset: 0x47FC2, size: 0x8, addend: 0x0, symName: __ZNSt3__122__compressed_pair_elemIRNS_9allocatorI7GMatrixEELi1ELb0EE5__getB7v160006Ev, symObjAddr: 0x11710, symBinAddr: 0x10002D460, symSize: 0x20 }
  - { offsetInCU: 0x1E15D, offset: 0x47FE6, size: 0x8, addend: 0x0, symName: __ZNSt3__117__compressed_pairIP7GMatrixRNS_9allocatorIS1_EEE5firstB7v160006Ev, symObjAddr: 0x11730, symBinAddr: 0x10002D480, symSize: 0x20 }
  - { offsetInCU: 0x1E19A, offset: 0x48023, size: 0x8, addend: 0x0, symName: __ZNKSt3__111__move_loopINS_17_ClassicAlgPolicyEEclB7v160006INS_16reverse_iteratorIP7GMatrixEES7_S7_EENS_4pairIT_T1_EES9_T0_SA_, symObjAddr: 0x11C50, symBinAddr: 0x10002D9A0, symSize: 0xB0 }
  - { offsetInCU: 0x1E208, offset: 0x48091, size: 0x8, addend: 0x0, symName: __ZNSt3__18_IterOpsINS_17_ClassicAlgPolicyEE11__iter_moveB7v160006IRNS_16reverse_iteratorIP7GMatrixEEEENS_9enable_ifIXsr12is_referenceIDTdeclsr3stdE7declvalIRT_EEEEE5valueEDTclsr3stdE4movedeclsr3stdE7declvalISB_EEEEE4typeEOSA_, symObjAddr: 0x11E40, symBinAddr: 0x10002DB90, symSize: 0x20 }
  - { offsetInCU: 0x1E234, offset: 0x480BD, size: 0x8, addend: 0x0, symName: __ZNSt3__18_IterOpsINS_17_ClassicAlgPolicyEE25__validate_iter_referenceB7v160006IRNS_16reverse_iteratorIP7GMatrixEEEEvv, symObjAddr: 0x11E60, symBinAddr: 0x10002DBB0, symSize: 0x10 }
  - { offsetInCU: 0x1E252, offset: 0x480DB, size: 0x8, addend: 0x0, symName: __ZNSt3__118__unwrap_iter_implINS_16reverse_iteratorIP7GMatrixEELb0EE8__unwrapB7v160006ES4_, symObjAddr: 0x11E70, symBinAddr: 0x10002DBC0, symSize: 0x20 }
  - { offsetInCU: 0x1E27A, offset: 0x48103, size: 0x8, addend: 0x0, symName: __ZNSt3__14pairINS_16reverse_iteratorIP7GMatrixEES4_EC1B7v160006IS4_S4_LPv0EEEOT_OT0_, symObjAddr: 0x11E90, symBinAddr: 0x10002DBE0, symSize: 0x30 }
  - { offsetInCU: 0x1E2D7, offset: 0x48160, size: 0x8, addend: 0x0, symName: __ZNSt3__14pairINS_16reverse_iteratorIP7GMatrixEES4_EC2B7v160006IS4_S4_LPv0EEEOT_OT0_, symObjAddr: 0x11EC0, symBinAddr: 0x10002DC10, symSize: 0x40 }
  - { offsetInCU: 0x1E334, offset: 0x481BD, size: 0x8, addend: 0x0, symName: __ZNSt3__118__unwrap_iter_implINS_16reverse_iteratorIP7GMatrixEELb0EE8__rewrapB7v160006ES4_S4_, symObjAddr: 0x11F00, symBinAddr: 0x10002DC50, symSize: 0x30 }
  - { offsetInCU: 0x1E361, offset: 0x481EA, size: 0x8, addend: 0x0, symName: __ZNSt3__114__split_bufferI7GMatrixRNS_9allocatorIS1_EEED2Ev, symObjAddr: 0x11F30, symBinAddr: 0x10002DC80, symSize: 0x70 }
  - { offsetInCU: 0x1E38C, offset: 0x48215, size: 0x8, addend: 0x0, symName: __ZNSt3__114__split_bufferI7GMatrixRNS_9allocatorIS1_EEE5clearB7v160006Ev, symObjAddr: 0x11FA0, symBinAddr: 0x10002DCF0, symSize: 0x20 }
  - { offsetInCU: 0x1E3B0, offset: 0x48239, size: 0x8, addend: 0x0, symName: __ZNKSt3__114__split_bufferI7GMatrixRNS_9allocatorIS1_EEE8capacityB7v160006Ev, symObjAddr: 0x11FC0, symBinAddr: 0x10002DD10, symSize: 0x40 }
  - { offsetInCU: 0x1E3D4, offset: 0x4825D, size: 0x8, addend: 0x0, symName: __ZNSt3__114__split_bufferI7GMatrixRNS_9allocatorIS1_EEE17__destruct_at_endB7v160006EPS1_, symObjAddr: 0x12000, symBinAddr: 0x10002DD50, symSize: 0x30 }
  - { offsetInCU: 0x1E406, offset: 0x4828F, size: 0x8, addend: 0x0, symName: __ZNSt3__114__split_bufferI7GMatrixRNS_9allocatorIS1_EEE17__destruct_at_endB7v160006EPS1_NS_17integral_constantIbLb0EEE, symObjAddr: 0x12030, symBinAddr: 0x10002DD80, symSize: 0x80 }
  - { offsetInCU: 0x1E445, offset: 0x482CE, size: 0x8, addend: 0x0, symName: __ZNKSt3__114__split_bufferI7GMatrixRNS_9allocatorIS1_EEE9__end_capB7v160006Ev, symObjAddr: 0x120B0, symBinAddr: 0x10002DE00, symSize: 0x20 }
  - { offsetInCU: 0x1E469, offset: 0x482F2, size: 0x8, addend: 0x0, symName: __ZNKSt3__117__compressed_pairIP7GMatrixRNS_9allocatorIS1_EEE5firstB7v160006Ev, symObjAddr: 0x120D0, symBinAddr: 0x10002DE20, symSize: 0x20 }
  - { offsetInCU: 0x1E48D, offset: 0x48316, size: 0x8, addend: 0x0, symName: __ZNSt3__16vectorI7GMatrixNS_9allocatorIS1_EEE11__make_iterB7v160006EPS1_, symObjAddr: 0x120F0, symBinAddr: 0x10002DE40, symSize: 0x30 }
  - { offsetInCU: 0x1E4C0, offset: 0x48349, size: 0x8, addend: 0x0, symName: __ZNSt3__111__wrap_iterIP7GMatrixEC1B7v160006EPKvS2_, symObjAddr: 0x12120, symBinAddr: 0x10002DE70, symSize: 0x30 }
  - { offsetInCU: 0x1E505, offset: 0x4838E, size: 0x8, addend: 0x0, symName: __ZNSt3__111__wrap_iterIP7GMatrixEC2B7v160006EPKvS2_, symObjAddr: 0x12150, symBinAddr: 0x10002DEA0, symSize: 0x20 }
  - { offsetInCU: 0x1E54A, offset: 0x483D3, size: 0x8, addend: 0x0, symName: __ZNKSt3__16vectorI7GMatrixNS_9allocatorIS1_EEE6cbeginB7v160006Ev, symObjAddr: 0x121B0, symBinAddr: 0x10002DF00, symSize: 0x30 }
  - { offsetInCU: 0x1E56E, offset: 0x483F7, size: 0x8, addend: 0x0, symName: __ZNSt3__16vectorI7GMatrixNS_9allocatorIS1_EEE17__destruct_at_endB7v160006EPS1_, symObjAddr: 0x121E0, symBinAddr: 0x10002DF30, symSize: 0x60 }
  - { offsetInCU: 0x1E5B0, offset: 0x48439, size: 0x8, addend: 0x0, symName: __ZNSt3__16vectorI7GMatrixNS_9allocatorIS1_EEE27__invalidate_iterators_pastB7v160006EPS1_, symObjAddr: 0x12280, symBinAddr: 0x10002DFD0, symSize: 0x10 }
  - { offsetInCU: 0x1E5E6, offset: 0x4846F, size: 0x8, addend: 0x0, symName: __ZNKSt3__111__wrap_iterIPK7GMatrixE4baseB7v160006Ev, symObjAddr: 0x12290, symBinAddr: 0x10002DFE0, symSize: 0x20 }
  - { offsetInCU: 0x1E60A, offset: 0x48493, size: 0x8, addend: 0x0, symName: __ZNKSt3__16vectorI7GMatrixNS_9allocatorIS1_EEE5beginB7v160006Ev, symObjAddr: 0x122B0, symBinAddr: 0x10002E000, symSize: 0x30 }
  - { offsetInCU: 0x1E631, offset: 0x484BA, size: 0x8, addend: 0x0, symName: __ZNKSt3__16vectorI7GMatrixNS_9allocatorIS1_EEE11__make_iterB7v160006EPKS1_, symObjAddr: 0x122E0, symBinAddr: 0x10002E030, symSize: 0x30 }
  - { offsetInCU: 0x1E664, offset: 0x484ED, size: 0x8, addend: 0x0, symName: __ZNSt3__111__wrap_iterIPK7GMatrixEC1B7v160006EPKvS3_, symObjAddr: 0x12310, symBinAddr: 0x10002E060, symSize: 0x30 }
  - { offsetInCU: 0x1E6A9, offset: 0x48532, size: 0x8, addend: 0x0, symName: __ZNSt3__111__wrap_iterIPK7GMatrixEC2B7v160006EPKvS3_, symObjAddr: 0x12340, symBinAddr: 0x10002E090, symSize: 0x20 }
  - { offsetInCU: 0x1E6EE, offset: 0x48577, size: 0x8, addend: 0x0, symName: __ZNKSt3__16vectorI7GMatrixNS_9allocatorIS1_EEE17__annotate_shrinkB7v160006Em, symObjAddr: 0x12360, symBinAddr: 0x10002E0B0, symSize: 0xA0 }
  - { offsetInCU: 0x1E744, offset: 0x485CD, size: 0x8, addend: 0x0, symName: __ZNKSt3__114__move_trivialclB7v160006I7GMatrixS2_Li0EEENS_4pairIPT_PT0_EES5_S5_S7_, symObjAddr: 0x12580, symBinAddr: 0x10002E2D0, symSize: 0x40 }
  - { offsetInCU: 0x1E7AA, offset: 0x48633, size: 0x8, addend: 0x0, symName: __ZNSt3__14pairIP7GMatrixS2_EC1B7v160006IRS2_S2_LPv0EEEOT_OT0_, symObjAddr: 0x126E0, symBinAddr: 0x10002E430, symSize: 0x30 }
  - { offsetInCU: 0x1E807, offset: 0x48690, size: 0x8, addend: 0x0, symName: __ZNSt3__14pairIP7GMatrixS2_EC2B7v160006IRS2_S2_LPv0EEEOT_OT0_, symObjAddr: 0x12710, symBinAddr: 0x10002E460, symSize: 0x30 }
  - { offsetInCU: 0x1E864, offset: 0x486ED, size: 0x8, addend: 0x0, symName: __ZNSt3__14pairIP7GMatrixS2_EC1B7v160006IS2_S2_LPv0EEEOT_OT0_, symObjAddr: 0x12740, symBinAddr: 0x10002E490, symSize: 0x30 }
  - { offsetInCU: 0x1E8C1, offset: 0x4874A, size: 0x8, addend: 0x0, symName: __ZNSt3__14pairIP7GMatrixS2_EC2B7v160006IS2_S2_LPv0EEEOT_OT0_, symObjAddr: 0x12770, symBinAddr: 0x10002E4C0, symSize: 0x30 }
  - { offsetInCU: 0x1E923, offset: 0x487AC, size: 0x8, addend: 0x0, symName: '__ZNSt3__116_UnwrapAlgPolicyIRZN8MyCanvas8drawPathERK5GPathRK6GPaintE3$_1E10__get_compB7v160006ES9_', symObjAddr: 0x12890, symBinAddr: 0x10002E5E0, symSize: 0x10 }
  - { offsetInCU: 0x1E950, offset: 0x487D9, size: 0x8, addend: 0x0, symName: '__ZZN8MyCanvas8drawPathERK5GPathRK6GPaintENK3$_1clER4EdgeS8_', symObjAddr: 0x12F50, symBinAddr: 0x10002ECA0, symSize: 0x70 }
  - { offsetInCU: 0x1E995, offset: 0x4881E, size: 0x8, addend: 0x0, symName: __ZNKSt3__16vectorI4EdgeNS_9allocatorIS1_EEE6cbeginB7v160006Ev, symObjAddr: 0x140F0, symBinAddr: 0x10002FE40, symSize: 0x30 }
  - { offsetInCU: 0x1E9B9, offset: 0x48842, size: 0x8, addend: 0x0, symName: __ZNKSt3__111__wrap_iterIPK4EdgeE4baseB7v160006Ev, symObjAddr: 0x14160, symBinAddr: 0x10002FEB0, symSize: 0x20 }
  - { offsetInCU: 0x1E9DD, offset: 0x48866, size: 0x8, addend: 0x0, symName: __ZNKSt3__16vectorI4EdgeNS_9allocatorIS1_EEE5beginB7v160006Ev, symObjAddr: 0x14180, symBinAddr: 0x10002FED0, symSize: 0x30 }
  - { offsetInCU: 0x1EA04, offset: 0x4888D, size: 0x8, addend: 0x0, symName: __ZNKSt3__16vectorI4EdgeNS_9allocatorIS1_EEE11__make_iterB7v160006EPKS1_, symObjAddr: 0x141B0, symBinAddr: 0x10002FF00, symSize: 0x30 }
  - { offsetInCU: 0x1EA37, offset: 0x488C0, size: 0x8, addend: 0x0, symName: __ZNSt3__111__wrap_iterIPK4EdgeEC1B7v160006EPKvS3_, symObjAddr: 0x141E0, symBinAddr: 0x10002FF30, symSize: 0x30 }
  - { offsetInCU: 0x1EA7C, offset: 0x48905, size: 0x8, addend: 0x0, symName: __ZNSt3__111__wrap_iterIPK4EdgeEC2B7v160006EPKvS3_, symObjAddr: 0x14210, symBinAddr: 0x10002FF60, symSize: 0x20 }
  - { offsetInCU: 0x1EADA, offset: 0x48963, size: 0x8, addend: 0x0, symName: __ZNKSt3__114__move_trivialclB7v160006I4EdgeS2_Li0EEENS_4pairIPT_PT0_EES5_S5_S7_, symObjAddr: 0x143B0, symBinAddr: 0x100030100, symSize: 0x40 }
  - { offsetInCU: 0x1EB45, offset: 0x489CE, size: 0x8, addend: 0x0, symName: __ZNSt3__14pairIP4EdgeS2_EC1B7v160006IRS2_S2_LPv0EEEOT_OT0_, symObjAddr: 0x14570, symBinAddr: 0x1000302C0, symSize: 0x30 }
  - { offsetInCU: 0x1EBA2, offset: 0x48A2B, size: 0x8, addend: 0x0, symName: __ZNSt3__14pairIP4EdgeS2_EC2B7v160006IRS2_S2_LPv0EEEOT_OT0_, symObjAddr: 0x145A0, symBinAddr: 0x1000302F0, symSize: 0x30 }
  - { offsetInCU: 0x1EBFF, offset: 0x48A88, size: 0x8, addend: 0x0, symName: __ZNSt3__118__unwrap_iter_implIP4EdgeLb1EE8__unwrapB7v160006ES2_, symObjAddr: 0x145D0, symBinAddr: 0x100030320, symSize: 0x20 }
  - { offsetInCU: 0x1EC22, offset: 0x48AAB, size: 0x8, addend: 0x0, symName: __ZNSt3__14pairIP4EdgeS2_EC1B7v160006IS2_S2_LPv0EEEOT_OT0_, symObjAddr: 0x145F0, symBinAddr: 0x100030340, symSize: 0x30 }
  - { offsetInCU: 0x1EC7F, offset: 0x48B08, size: 0x8, addend: 0x0, symName: __ZNSt3__14pairIP4EdgeS2_EC2B7v160006IS2_S2_LPv0EEEOT_OT0_, symObjAddr: 0x14620, symBinAddr: 0x100030370, symSize: 0x30 }
  - { offsetInCU: 0x1ECDC, offset: 0x48B65, size: 0x8, addend: 0x0, symName: __ZNSt3__118__unwrap_iter_implIP4EdgeLb1EE8__rewrapB7v160006ES2_S2_, symObjAddr: 0x14650, symBinAddr: 0x1000303A0, symSize: 0x60 }
  - { offsetInCU: 0x1ED12, offset: 0x48B9B, size: 0x8, addend: 0x0, symName: '__ZNSt3__116_UnwrapAlgPolicyIRZN8MyCanvas8drawPathERK5GPathRK6GPaintE3$_2E10__get_compB7v160006ES9_', symObjAddr: 0x147A0, symBinAddr: 0x1000304F0, symSize: 0x10 }
  - { offsetInCU: 0x1ED3F, offset: 0x48BC8, size: 0x8, addend: 0x0, symName: '__ZZN8MyCanvas8drawPathERK5GPathRK6GPaintENK3$_2clER4EdgeS8_', symObjAddr: 0x14E60, symBinAddr: 0x100030BB0, symSize: 0x60 }
  - { offsetInCU: 0x1ED86, offset: 0x48C0F, size: 0x8, addend: 0x0, symName: __ZNSt3__112basic_stringIcNS_11char_traitsIcEENS_9allocatorIcEEEC2B7v160006IDnEEPKc, symObjAddr: 0x15FB0, symBinAddr: 0x100031D00, symSize: 0x55 }
  - { offsetInCU: 0x2A24, offset: 0x4B95A, size: 0x8, addend: 0x0, symName: __ZNSt3__142__uninitialized_allocator_move_if_noexceptB7v160006INS_9allocatorI6GPointEENS_16reverse_iteratorIPS2_EES6_S2_vEET1_RT_T0_SA_S7_, symObjAddr: 0x13E0, symBinAddr: 0x1000328E0, symSize: 0x70 }
  - { offsetInCU: 0x2AA1, offset: 0x4B9D7, size: 0x8, addend: 0x0, symName: __ZNSt3__14swapB7v160006IP6GPointEENS_9enable_ifIXaasr21is_move_constructibleIT_EE5valuesr18is_move_assignableIS4_EE5valueEvE4typeERS4_S7_, symObjAddr: 0x14A0, symBinAddr: 0x100032950, symSize: 0x40 }
  - { offsetInCU: 0x2AF2, offset: 0x4BA28, size: 0x8, addend: 0x0, symName: __ZNSt3__14moveB7v160006INS_16reverse_iteratorIP6GPointEES4_EET0_T_S6_S5_, symObjAddr: 0x15E0, symBinAddr: 0x100032990, symSize: 0x80 }
  - { offsetInCU: 0x2B4C, offset: 0x4BA82, size: 0x8, addend: 0x0, symName: __ZNSt3__16__moveB7v160006INS_17_ClassicAlgPolicyENS_16reverse_iteratorIP6GPointEES5_S5_EENS_4pairIT0_T2_EES7_T1_S8_, symObjAddr: 0x1660, symBinAddr: 0x100032A10, symSize: 0x90 }
  - { offsetInCU: 0x2BB8, offset: 0x4BAEE, size: 0x8, addend: 0x0, symName: __ZNSt3__123__dispatch_copy_or_moveB7v160006INS_17_ClassicAlgPolicyENS_11__move_loopIS1_EENS_14__move_trivialENS_16reverse_iteratorIP6GPointEES8_S8_EENS_4pairIT2_T4_EESA_T3_SB_, symObjAddr: 0x16F0, symBinAddr: 0x100032AA0, symSize: 0x90 }
  - { offsetInCU: 0x2C36, offset: 0x4BB6C, size: 0x8, addend: 0x0, symName: __ZNSt3__121__unwrap_and_dispatchB7v160006INS_10__overloadINS_11__move_loopINS_17_ClassicAlgPolicyEEENS_14__move_trivialEEENS_16reverse_iteratorIP6GPointEESA_SA_Li0EEENS_4pairIT0_T2_EESC_T1_SD_, symObjAddr: 0x1780, symBinAddr: 0x100032B30, symSize: 0x210 }
  - { offsetInCU: 0x2CC5, offset: 0x4BBFB, size: 0x8, addend: 0x0, symName: __ZNSt3__114__unwrap_rangeB7v160006INS_16reverse_iteratorIP6GPointEES4_EENS_4pairIT0_S6_EET_S8_, symObjAddr: 0x1990, symBinAddr: 0x100032D40, symSize: 0x90 }
  - { offsetInCU: 0x2E76, offset: 0x4BDAC, size: 0x8, addend: 0x0, symName: __ZNSt3__113__unwrap_iterB7v160006INS_16reverse_iteratorIP6GPointEENS_18__unwrap_iter_implIS4_Lb0EEELi0EEEDTclsrT0_8__unwrapclsr3stdE7declvalIT_EEEES8_, symObjAddr: 0x1AC0, symBinAddr: 0x100032E70, symSize: 0x40 }
  - { offsetInCU: 0x2EBA, offset: 0x4BDF0, size: 0x8, addend: 0x0, symName: __ZNSt3__19make_pairB7v160006INS_16reverse_iteratorIP6GPointEES4_EENS_4pairINS_18__unwrap_ref_decayIT_E4typeENS6_IT0_E4typeEEEOS7_OSA_, symObjAddr: 0x1B00, symBinAddr: 0x100032EB0, symSize: 0x30 }
  - { offsetInCU: 0x2F09, offset: 0x4BE3F, size: 0x8, addend: 0x0, symName: __ZNSt3__114__rewrap_rangeB7v160006INS_16reverse_iteratorIP6GPointEES4_EET_S5_T0_, symObjAddr: 0x1B30, symBinAddr: 0x100032EE0, symSize: 0x60 }
  - { offsetInCU: 0x2F55, offset: 0x4BE8B, size: 0x8, addend: 0x0, symName: __ZNSt3__113__rewrap_iterB7v160006INS_16reverse_iteratorIP6GPointEES4_NS_18__unwrap_iter_implIS4_Lb0EEEEET_S7_T0_, symObjAddr: 0x1B90, symBinAddr: 0x100032F40, symSize: 0x70 }
  - { offsetInCU: 0x308F, offset: 0x4BFC5, size: 0x8, addend: 0x0, symName: __ZNSt3__142__uninitialized_allocator_move_if_noexceptB7v160006INS_9allocatorIN5GPath4VerbEEENS_16reverse_iteratorIPS3_EES7_S3_vEET1_RT_T0_SB_S8_, symObjAddr: 0x2B60, symBinAddr: 0x100033790, symSize: 0x70 }
  - { offsetInCU: 0x310C, offset: 0x4C042, size: 0x8, addend: 0x0, symName: __ZNSt3__14swapB7v160006IPN5GPath4VerbEEENS_9enable_ifIXaasr21is_move_constructibleIT_EE5valuesr18is_move_assignableIS5_EE5valueEvE4typeERS5_S8_, symObjAddr: 0x2C20, symBinAddr: 0x100033800, symSize: 0x40 }
  - { offsetInCU: 0x315D, offset: 0x4C093, size: 0x8, addend: 0x0, symName: __ZNSt3__14moveB7v160006INS_16reverse_iteratorIPN5GPath4VerbEEES5_EET0_T_S7_S6_, symObjAddr: 0x2D60, symBinAddr: 0x100033840, symSize: 0x80 }
  - { offsetInCU: 0x31B7, offset: 0x4C0ED, size: 0x8, addend: 0x0, symName: __ZNSt3__16__moveB7v160006INS_17_ClassicAlgPolicyENS_16reverse_iteratorIPN5GPath4VerbEEES6_S6_EENS_4pairIT0_T2_EES8_T1_S9_, symObjAddr: 0x2DE0, symBinAddr: 0x1000338C0, symSize: 0x90 }
  - { offsetInCU: 0x3223, offset: 0x4C159, size: 0x8, addend: 0x0, symName: __ZNSt3__123__dispatch_copy_or_moveB7v160006INS_17_ClassicAlgPolicyENS_11__move_loopIS1_EENS_14__move_trivialENS_16reverse_iteratorIPN5GPath4VerbEEES9_S9_EENS_4pairIT2_T4_EESB_T3_SC_, symObjAddr: 0x2E70, symBinAddr: 0x100033950, symSize: 0x90 }
  - { offsetInCU: 0x32A1, offset: 0x4C1D7, size: 0x8, addend: 0x0, symName: __ZNSt3__121__unwrap_and_dispatchB7v160006INS_10__overloadINS_11__move_loopINS_17_ClassicAlgPolicyEEENS_14__move_trivialEEENS_16reverse_iteratorIPN5GPath4VerbEEESB_SB_Li0EEENS_4pairIT0_T2_EESD_T1_SE_, symObjAddr: 0x2F00, symBinAddr: 0x1000339E0, symSize: 0x210 }
  - { offsetInCU: 0x3330, offset: 0x4C266, size: 0x8, addend: 0x0, symName: __ZNSt3__114__unwrap_rangeB7v160006INS_16reverse_iteratorIPN5GPath4VerbEEES5_EENS_4pairIT0_S7_EET_S9_, symObjAddr: 0x3110, symBinAddr: 0x100033BF0, symSize: 0x90 }
  - { offsetInCU: 0x3450, offset: 0x4C386, size: 0x8, addend: 0x0, symName: __ZNSt3__113__unwrap_iterB7v160006INS_16reverse_iteratorIPN5GPath4VerbEEENS_18__unwrap_iter_implIS5_Lb0EEELi0EEEDTclsrT0_8__unwrapclsr3stdE7declvalIT_EEEES9_, symObjAddr: 0x3240, symBinAddr: 0x100033D20, symSize: 0x40 }
  - { offsetInCU: 0x3494, offset: 0x4C3CA, size: 0x8, addend: 0x0, symName: __ZNSt3__19make_pairB7v160006INS_16reverse_iteratorIPN5GPath4VerbEEES5_EENS_4pairINS_18__unwrap_ref_decayIT_E4typeENS7_IT0_E4typeEEEOS8_OSB_, symObjAddr: 0x3280, symBinAddr: 0x100033D60, symSize: 0x30 }
  - { offsetInCU: 0x34E3, offset: 0x4C419, size: 0x8, addend: 0x0, symName: __ZNSt3__114__rewrap_rangeB7v160006INS_16reverse_iteratorIPN5GPath4VerbEEES5_EET_S6_T0_, symObjAddr: 0x32B0, symBinAddr: 0x100033D90, symSize: 0x60 }
  - { offsetInCU: 0x352F, offset: 0x4C465, size: 0x8, addend: 0x0, symName: __ZNSt3__113__rewrap_iterB7v160006INS_16reverse_iteratorIPN5GPath4VerbEEES5_NS_18__unwrap_iter_implIS5_Lb0EEEEET_S8_T0_, symObjAddr: 0x3310, symBinAddr: 0x100033DF0, symSize: 0x70 }
  - { offsetInCU: 0x3826, offset: 0x4C75C, size: 0x8, addend: 0x0, symName: __ZNSt3__16vectorI6GPointNS_9allocatorIS1_EEE26__swap_out_circular_bufferERNS_14__split_bufferIS1_RS3_EE, symObjAddr: 0xA50, symBinAddr: 0x100032590, symSize: 0x130 }
  - { offsetInCU: 0x3874, offset: 0x4C7AA, size: 0x8, addend: 0x0, symName: __ZNSt3__16vectorIN5GPath4VerbENS_9allocatorIS2_EEE26__swap_out_circular_bufferERNS_14__split_bufferIS2_RS4_EE, symObjAddr: 0x2520, symBinAddr: 0x100033440, symSize: 0x130 }
  - { offsetInCU: 0x5643, offset: 0x4E579, size: 0x8, addend: 0x0, symName: __ZN5GPath7addRectERK5GRectNS_9DirectionE, symObjAddr: 0x0, symBinAddr: 0x100031D60, symSize: 0x120 }
  - { offsetInCU: 0x5685, offset: 0x4E5BB, size: 0x8, addend: 0x0, symName: __ZN5GPath6moveToEff, symObjAddr: 0x120, symBinAddr: 0x100031E80, symSize: 0x40 }
  - { offsetInCU: 0x56C5, offset: 0x4E5FB, size: 0x8, addend: 0x0, symName: __ZN5GPath6lineToEff, symObjAddr: 0x160, symBinAddr: 0x100031EC0, symSize: 0x40 }
  - { offsetInCU: 0x5705, offset: 0x4E63B, size: 0x8, addend: 0x0, symName: __ZN5GPath10addPolygonEPK6GPointi, symObjAddr: 0x1A0, symBinAddr: 0x100031F00, symSize: 0x80 }
  - { offsetInCU: 0x5763, offset: 0x4E699, size: 0x8, addend: 0x0, symName: __ZN5GPath6moveToE6GPoint, symObjAddr: 0x220, symBinAddr: 0x100031F80, symSize: 0x40 }
  - { offsetInCU: 0x5795, offset: 0x4E6CB, size: 0x8, addend: 0x0, symName: __ZN5GPath6lineToE6GPoint, symObjAddr: 0x260, symBinAddr: 0x100031FC0, symSize: 0x90 }
  - { offsetInCU: 0x57C7, offset: 0x4E6FD, size: 0x8, addend: 0x0, symName: __ZNK5GPath6boundsEv, symObjAddr: 0x2F0, symBinAddr: 0x100032050, symSize: 0x1F0 }
  - { offsetInCU: 0x5841, offset: 0x4E777, size: 0x8, addend: 0x0, symName: __ZNKSt3__16vectorI6GPointNS_9allocatorIS1_EEEixB7v160006Em, symObjAddr: 0x500, symBinAddr: 0x100032240, symSize: 0x20 }
  - { offsetInCU: 0x5877, offset: 0x4E7AD, size: 0x8, addend: 0x0, symName: __ZN5GPath9transformERK7GMatrix, symObjAddr: 0x520, symBinAddr: 0x100032260, symSize: 0x60 }
  - { offsetInCU: 0x58AB, offset: 0x4E7E1, size: 0x8, addend: 0x0, symName: __ZNSt3__16vectorI6GPointNS_9allocatorIS1_EEE4dataB7v160006Ev, symObjAddr: 0x580, symBinAddr: 0x1000322C0, symSize: 0x20 }
  - { offsetInCU: 0x58CF, offset: 0x4E805, size: 0x8, addend: 0x0, symName: __ZNSt3__16vectorI6GPointNS_9allocatorIS1_EEE9push_backB7v160006ERKS1_, symObjAddr: 0x5A0, symBinAddr: 0x1000322E0, symSize: 0x60 }
  - { offsetInCU: 0x5905, offset: 0x4E83B, size: 0x8, addend: 0x0, symName: __ZNSt3__16vectorIN5GPath4VerbENS_9allocatorIS2_EEE9push_backB7v160006EOS2_, symObjAddr: 0x600, symBinAddr: 0x100032340, symSize: 0x60 }
  - { offsetInCU: 0x593B, offset: 0x4E871, size: 0x8, addend: 0x0, symName: __ZNSt3__16vectorI6GPointNS_9allocatorIS1_EEE22__construct_one_at_endB7v160006IJRKS1_EEEvDpOT_, symObjAddr: 0x680, symBinAddr: 0x1000323A0, symSize: 0x90 }
  - { offsetInCU: 0x5988, offset: 0x4E8BE, size: 0x8, addend: 0x0, symName: __ZNSt3__16vectorI6GPointNS_9allocatorIS1_EEE21__push_back_slow_pathIRKS1_EEvOT_, symObjAddr: 0x710, symBinAddr: 0x100032430, symSize: 0xD0 }
  - { offsetInCU: 0x59FE, offset: 0x4E934, size: 0x8, addend: 0x0, symName: __ZNSt3__116allocator_traitsINS_9allocatorI6GPointEEE9constructB7v160006IS2_JRKS2_EvEEvRS3_PT_DpOT0_, symObjAddr: 0x840, symBinAddr: 0x100032500, symSize: 0x30 }
  - { offsetInCU: 0x5A55, offset: 0x4E98B, size: 0x8, addend: 0x0, symName: __ZNSt3__19allocatorI6GPointE9constructB7v160006IS1_JRKS1_EEEvPT_DpOT0_, symObjAddr: 0x900, symBinAddr: 0x100032530, symSize: 0x20 }
  - { offsetInCU: 0x5AA9, offset: 0x4E9DF, size: 0x8, addend: 0x0, symName: __ZNSt3__114__split_bufferI6GPointRNS_9allocatorIS1_EEEC1EmmS4_, symObjAddr: 0xA10, symBinAddr: 0x100032550, symSize: 0x40 }
  - { offsetInCU: 0x5AFE, offset: 0x4EA34, size: 0x8, addend: 0x0, symName: __ZNSt3__114__split_bufferI6GPointRNS_9allocatorIS1_EEED1Ev, symObjAddr: 0xB80, symBinAddr: 0x1000326C0, symSize: 0x20 }
  - { offsetInCU: 0x5B33, offset: 0x4EA69, size: 0x8, addend: 0x0, symName: __ZNSt3__114__split_bufferI6GPointRNS_9allocatorIS1_EEEC2EmmS4_, symObjAddr: 0xF70, symBinAddr: 0x1000326E0, symSize: 0xD0 }
  - { offsetInCU: 0x5BAA, offset: 0x4EAE0, size: 0x8, addend: 0x0, symName: __ZNSt3__117__compressed_pairIP6GPointRNS_9allocatorIS1_EEEC1B7v160006IDnS5_EEOT_OT0_, symObjAddr: 0x1040, symBinAddr: 0x1000327B0, symSize: 0x30 }
  - { offsetInCU: 0x5C01, offset: 0x4EB37, size: 0x8, addend: 0x0, symName: __ZNSt3__114__split_bufferI6GPointRNS_9allocatorIS1_EEE7__allocB7v160006Ev, symObjAddr: 0x10B0, symBinAddr: 0x1000327E0, symSize: 0x20 }
  - { offsetInCU: 0x5C25, offset: 0x4EB5B, size: 0x8, addend: 0x0, symName: __ZNSt3__114__split_bufferI6GPointRNS_9allocatorIS1_EEE9__end_capB7v160006Ev, symObjAddr: 0x10D0, symBinAddr: 0x100032800, symSize: 0x20 }
  - { offsetInCU: 0x5C49, offset: 0x4EB7F, size: 0x8, addend: 0x0, symName: __ZNSt3__117__compressed_pairIP6GPointRNS_9allocatorIS1_EEEC2B7v160006IDnS5_EEOT_OT0_, symObjAddr: 0x10F0, symBinAddr: 0x100032820, symSize: 0x40 }
  - { offsetInCU: 0x5CA0, offset: 0x4EBD6, size: 0x8, addend: 0x0, symName: __ZNSt3__122__compressed_pair_elemIRNS_9allocatorI6GPointEELi1ELb0EEC2B7v160006IS4_vEEOT_, symObjAddr: 0x1150, symBinAddr: 0x100032860, symSize: 0x20 }
  - { offsetInCU: 0x5CE1, offset: 0x4EC17, size: 0x8, addend: 0x0, symName: __ZNSt3__117__compressed_pairIP6GPointRNS_9allocatorIS1_EEE6secondB7v160006Ev, symObjAddr: 0x12D0, symBinAddr: 0x100032880, symSize: 0x20 }
  - { offsetInCU: 0x5D05, offset: 0x4EC3B, size: 0x8, addend: 0x0, symName: __ZNSt3__122__compressed_pair_elemIRNS_9allocatorI6GPointEELi1ELb0EE5__getB7v160006Ev, symObjAddr: 0x12F0, symBinAddr: 0x1000328A0, symSize: 0x20 }
  - { offsetInCU: 0x5D29, offset: 0x4EC5F, size: 0x8, addend: 0x0, symName: __ZNSt3__117__compressed_pairIP6GPointRNS_9allocatorIS1_EEE5firstB7v160006Ev, symObjAddr: 0x1310, symBinAddr: 0x1000328C0, symSize: 0x20 }
  - { offsetInCU: 0x5D70, offset: 0x4ECA6, size: 0x8, addend: 0x0, symName: __ZNKSt3__111__move_loopINS_17_ClassicAlgPolicyEEclB7v160006INS_16reverse_iteratorIP6GPointEES7_S7_EENS_4pairIT_T1_EES9_T0_SA_, symObjAddr: 0x1A20, symBinAddr: 0x100032DD0, symSize: 0xA0 }
  - { offsetInCU: 0x5DDE, offset: 0x4ED14, size: 0x8, addend: 0x0, symName: __ZNSt3__18_IterOpsINS_17_ClassicAlgPolicyEE11__iter_moveB7v160006IRNS_16reverse_iteratorIP6GPointEEEENS_9enable_ifIXsr12is_referenceIDTdeclsr3stdE7declvalIRT_EEEEE5valueEDTclsr3stdE4movedeclsr3stdE7declvalISB_EEEEE4typeEOSA_, symObjAddr: 0x1C40, symBinAddr: 0x100032FB0, symSize: 0x20 }
  - { offsetInCU: 0x5E0A, offset: 0x4ED40, size: 0x8, addend: 0x0, symName: __ZNSt3__18_IterOpsINS_17_ClassicAlgPolicyEE25__validate_iter_referenceB7v160006IRNS_16reverse_iteratorIP6GPointEEEEvv, symObjAddr: 0x1CB0, symBinAddr: 0x100032FD0, symSize: 0x10 }
  - { offsetInCU: 0x5E28, offset: 0x4ED5E, size: 0x8, addend: 0x0, symName: __ZNSt3__118__unwrap_iter_implINS_16reverse_iteratorIP6GPointEELb0EE8__unwrapB7v160006ES4_, symObjAddr: 0x1CC0, symBinAddr: 0x100032FE0, symSize: 0x20 }
  - { offsetInCU: 0x5E50, offset: 0x4ED86, size: 0x8, addend: 0x0, symName: __ZNSt3__14pairINS_16reverse_iteratorIP6GPointEES4_EC1B7v160006IS4_S4_LPv0EEEOT_OT0_, symObjAddr: 0x1CE0, symBinAddr: 0x100033000, symSize: 0x30 }
  - { offsetInCU: 0x5EAD, offset: 0x4EDE3, size: 0x8, addend: 0x0, symName: __ZNSt3__14pairINS_16reverse_iteratorIP6GPointEES4_EC2B7v160006IS4_S4_LPv0EEEOT_OT0_, symObjAddr: 0x1D10, symBinAddr: 0x100033030, symSize: 0x40 }
  - { offsetInCU: 0x5F0A, offset: 0x4EE40, size: 0x8, addend: 0x0, symName: __ZNSt3__118__unwrap_iter_implINS_16reverse_iteratorIP6GPointEELb0EE8__rewrapB7v160006ES4_S4_, symObjAddr: 0x1D50, symBinAddr: 0x100033070, symSize: 0x30 }
  - { offsetInCU: 0x5F37, offset: 0x4EE6D, size: 0x8, addend: 0x0, symName: __ZNSt3__114__split_bufferI6GPointRNS_9allocatorIS1_EEED2Ev, symObjAddr: 0x1DB0, symBinAddr: 0x1000330A0, symSize: 0x70 }
  - { offsetInCU: 0x5F62, offset: 0x4EE98, size: 0x8, addend: 0x0, symName: __ZNSt3__114__split_bufferI6GPointRNS_9allocatorIS1_EEE5clearB7v160006Ev, symObjAddr: 0x1E20, symBinAddr: 0x100033110, symSize: 0x20 }
  - { offsetInCU: 0x5F86, offset: 0x4EEBC, size: 0x8, addend: 0x0, symName: __ZNKSt3__114__split_bufferI6GPointRNS_9allocatorIS1_EEE8capacityB7v160006Ev, symObjAddr: 0x1E70, symBinAddr: 0x100033130, symSize: 0x30 }
  - { offsetInCU: 0x5FAA, offset: 0x4EEE0, size: 0x8, addend: 0x0, symName: __ZNSt3__114__split_bufferI6GPointRNS_9allocatorIS1_EEE17__destruct_at_endB7v160006EPS1_, symObjAddr: 0x1EA0, symBinAddr: 0x100033160, symSize: 0x30 }
  - { offsetInCU: 0x5FDC, offset: 0x4EF12, size: 0x8, addend: 0x0, symName: __ZNSt3__114__split_bufferI6GPointRNS_9allocatorIS1_EEE17__destruct_at_endB7v160006EPS1_NS_17integral_constantIbLb0EEE, symObjAddr: 0x1ED0, symBinAddr: 0x100033190, symSize: 0x80 }
  - { offsetInCU: 0x601B, offset: 0x4EF51, size: 0x8, addend: 0x0, symName: __ZNKSt3__114__split_bufferI6GPointRNS_9allocatorIS1_EEE9__end_capB7v160006Ev, symObjAddr: 0x20D0, symBinAddr: 0x100033210, symSize: 0x20 }
  - { offsetInCU: 0x603F, offset: 0x4EF75, size: 0x8, addend: 0x0, symName: __ZNKSt3__117__compressed_pairIP6GPointRNS_9allocatorIS1_EEE5firstB7v160006Ev, symObjAddr: 0x20F0, symBinAddr: 0x100033230, symSize: 0x20 }
  - { offsetInCU: 0x6068, offset: 0x4EF9E, size: 0x8, addend: 0x0, symName: __ZNSt3__16vectorIN5GPath4VerbENS_9allocatorIS2_EEE22__construct_one_at_endB7v160006IJS2_EEEvDpOT_, symObjAddr: 0x2130, symBinAddr: 0x100033250, symSize: 0x90 }
  - { offsetInCU: 0x60B5, offset: 0x4EFEB, size: 0x8, addend: 0x0, symName: __ZNSt3__16vectorIN5GPath4VerbENS_9allocatorIS2_EEE21__push_back_slow_pathIS2_EEvOT_, symObjAddr: 0x21C0, symBinAddr: 0x1000332E0, symSize: 0xD0 }
  - { offsetInCU: 0x612B, offset: 0x4F061, size: 0x8, addend: 0x0, symName: __ZNSt3__116allocator_traitsINS_9allocatorIN5GPath4VerbEEEE9constructB7v160006IS3_JS3_EvEEvRS4_PT_DpOT0_, symObjAddr: 0x22F0, symBinAddr: 0x1000333B0, symSize: 0x30 }
  - { offsetInCU: 0x6182, offset: 0x4F0B8, size: 0x8, addend: 0x0, symName: __ZNSt3__19allocatorIN5GPath4VerbEE9constructB7v160006IS2_JS2_EEEvPT_DpOT0_, symObjAddr: 0x23B0, symBinAddr: 0x1000333E0, symSize: 0x20 }
  - { offsetInCU: 0x61D6, offset: 0x4F10C, size: 0x8, addend: 0x0, symName: __ZNSt3__114__split_bufferIN5GPath4VerbERNS_9allocatorIS2_EEEC1EmmS5_, symObjAddr: 0x24E0, symBinAddr: 0x100033400, symSize: 0x40 }
  - { offsetInCU: 0x622B, offset: 0x4F161, size: 0x8, addend: 0x0, symName: __ZNSt3__114__split_bufferIN5GPath4VerbERNS_9allocatorIS2_EEED1Ev, symObjAddr: 0x2650, symBinAddr: 0x100033570, symSize: 0x20 }
  - { offsetInCU: 0x6260, offset: 0x4F196, size: 0x8, addend: 0x0, symName: __ZNSt3__114__split_bufferIN5GPath4VerbERNS_9allocatorIS2_EEEC2EmmS5_, symObjAddr: 0x2800, symBinAddr: 0x100033590, symSize: 0xD0 }
  - { offsetInCU: 0x62D2, offset: 0x4F208, size: 0x8, addend: 0x0, symName: __ZNSt3__117__compressed_pairIPN5GPath4VerbERNS_9allocatorIS2_EEEC1B7v160006IDnS6_EEOT_OT0_, symObjAddr: 0x28D0, symBinAddr: 0x100033660, symSize: 0x30 }
  - { offsetInCU: 0x6329, offset: 0x4F25F, size: 0x8, addend: 0x0, symName: __ZNSt3__114__split_bufferIN5GPath4VerbERNS_9allocatorIS2_EEE7__allocB7v160006Ev, symObjAddr: 0x2940, symBinAddr: 0x100033690, symSize: 0x20 }
  - { offsetInCU: 0x634D, offset: 0x4F283, size: 0x8, addend: 0x0, symName: __ZNSt3__114__split_bufferIN5GPath4VerbERNS_9allocatorIS2_EEE9__end_capB7v160006Ev, symObjAddr: 0x2960, symBinAddr: 0x1000336B0, symSize: 0x20 }
  - { offsetInCU: 0x6371, offset: 0x4F2A7, size: 0x8, addend: 0x0, symName: __ZNSt3__117__compressed_pairIPN5GPath4VerbERNS_9allocatorIS2_EEEC2B7v160006IDnS6_EEOT_OT0_, symObjAddr: 0x2980, symBinAddr: 0x1000336D0, symSize: 0x40 }
  - { offsetInCU: 0x63C8, offset: 0x4F2FE, size: 0x8, addend: 0x0, symName: __ZNSt3__122__compressed_pair_elemIRNS_9allocatorIN5GPath4VerbEEELi1ELb0EEC2B7v160006IS5_vEEOT_, symObjAddr: 0x29E0, symBinAddr: 0x100033710, symSize: 0x20 }
  - { offsetInCU: 0x6409, offset: 0x4F33F, size: 0x8, addend: 0x0, symName: __ZNSt3__117__compressed_pairIPN5GPath4VerbERNS_9allocatorIS2_EEE6secondB7v160006Ev, symObjAddr: 0x2A50, symBinAddr: 0x100033730, symSize: 0x20 }
  - { offsetInCU: 0x642D, offset: 0x4F363, size: 0x8, addend: 0x0, symName: __ZNSt3__122__compressed_pair_elemIRNS_9allocatorIN5GPath4VerbEEELi1ELb0EE5__getB7v160006Ev, symObjAddr: 0x2A70, symBinAddr: 0x100033750, symSize: 0x20 }
  - { offsetInCU: 0x6451, offset: 0x4F387, size: 0x8, addend: 0x0, symName: __ZNSt3__117__compressed_pairIPN5GPath4VerbERNS_9allocatorIS2_EEE5firstB7v160006Ev, symObjAddr: 0x2A90, symBinAddr: 0x100033770, symSize: 0x20 }
  - { offsetInCU: 0x648E, offset: 0x4F3C4, size: 0x8, addend: 0x0, symName: __ZNKSt3__111__move_loopINS_17_ClassicAlgPolicyEEclB7v160006INS_16reverse_iteratorIPN5GPath4VerbEEES8_S8_EENS_4pairIT_T1_EESA_T0_SB_, symObjAddr: 0x31A0, symBinAddr: 0x100033C80, symSize: 0xA0 }
  - { offsetInCU: 0x64F7, offset: 0x4F42D, size: 0x8, addend: 0x0, symName: __ZNSt3__18_IterOpsINS_17_ClassicAlgPolicyEE11__iter_moveB7v160006IRNS_16reverse_iteratorIPN5GPath4VerbEEEEENS_9enable_ifIXsr12is_referenceIDTdeclsr3stdE7declvalIRT_EEEEE5valueEDTclsr3stdE4movedeclsr3stdE7declvalISC_EEEEE4typeEOSB_, symObjAddr: 0x33C0, symBinAddr: 0x100033E60, symSize: 0x20 }
  - { offsetInCU: 0x6523, offset: 0x4F459, size: 0x8, addend: 0x0, symName: __ZNSt3__18_IterOpsINS_17_ClassicAlgPolicyEE25__validate_iter_referenceB7v160006IRNS_16reverse_iteratorIPN5GPath4VerbEEEEEvv, symObjAddr: 0x3430, symBinAddr: 0x100033E80, symSize: 0x10 }
  - { offsetInCU: 0x6541, offset: 0x4F477, size: 0x8, addend: 0x0, symName: __ZNSt3__118__unwrap_iter_implINS_16reverse_iteratorIPN5GPath4VerbEEELb0EE8__unwrapB7v160006ES5_, symObjAddr: 0x3440, symBinAddr: 0x100033E90, symSize: 0x20 }
  - { offsetInCU: 0x6569, offset: 0x4F49F, size: 0x8, addend: 0x0, symName: __ZNSt3__14pairINS_16reverse_iteratorIPN5GPath4VerbEEES5_EC1B7v160006IS5_S5_LPv0EEEOT_OT0_, symObjAddr: 0x3460, symBinAddr: 0x100033EB0, symSize: 0x30 }
  - { offsetInCU: 0x65C6, offset: 0x4F4FC, size: 0x8, addend: 0x0, symName: __ZNSt3__14pairINS_16reverse_iteratorIPN5GPath4VerbEEES5_EC2B7v160006IS5_S5_LPv0EEEOT_OT0_, symObjAddr: 0x3490, symBinAddr: 0x100033EE0, symSize: 0x40 }
  - { offsetInCU: 0x6623, offset: 0x4F559, size: 0x8, addend: 0x0, symName: __ZNSt3__118__unwrap_iter_implINS_16reverse_iteratorIPN5GPath4VerbEEELb0EE8__rewrapB7v160006ES5_S5_, symObjAddr: 0x34D0, symBinAddr: 0x100033F20, symSize: 0x30 }
  - { offsetInCU: 0x6650, offset: 0x4F586, size: 0x8, addend: 0x0, symName: __ZNSt3__114__split_bufferIN5GPath4VerbERNS_9allocatorIS2_EEED2Ev, symObjAddr: 0x3530, symBinAddr: 0x100033F50, symSize: 0x70 }
  - { offsetInCU: 0x667B, offset: 0x4F5B1, size: 0x8, addend: 0x0, symName: __ZNSt3__114__split_bufferIN5GPath4VerbERNS_9allocatorIS2_EEE5clearB7v160006Ev, symObjAddr: 0x35A0, symBinAddr: 0x100033FC0, symSize: 0x20 }
  - { offsetInCU: 0x669F, offset: 0x4F5D5, size: 0x8, addend: 0x0, symName: __ZNKSt3__114__split_bufferIN5GPath4VerbERNS_9allocatorIS2_EEE8capacityB7v160006Ev, symObjAddr: 0x35F0, symBinAddr: 0x100033FE0, symSize: 0x30 }
  - { offsetInCU: 0x66C3, offset: 0x4F5F9, size: 0x8, addend: 0x0, symName: __ZNSt3__114__split_bufferIN5GPath4VerbERNS_9allocatorIS2_EEE17__destruct_at_endB7v160006EPS2_, symObjAddr: 0x3620, symBinAddr: 0x100034010, symSize: 0x30 }
  - { offsetInCU: 0x66F5, offset: 0x4F62B, size: 0x8, addend: 0x0, symName: __ZNSt3__114__split_bufferIN5GPath4VerbERNS_9allocatorIS2_EEE17__destruct_at_endB7v160006EPS2_NS_17integral_constantIbLb0EEE, symObjAddr: 0x3650, symBinAddr: 0x100034040, symSize: 0x80 }
  - { offsetInCU: 0x6734, offset: 0x4F66A, size: 0x8, addend: 0x0, symName: __ZNKSt3__114__split_bufferIN5GPath4VerbERNS_9allocatorIS2_EEE9__end_capB7v160006Ev, symObjAddr: 0x3750, symBinAddr: 0x1000340C0, symSize: 0x20 }
  - { offsetInCU: 0x6758, offset: 0x4F68E, size: 0x8, addend: 0x0, symName: __ZNKSt3__117__compressed_pairIPN5GPath4VerbERNS_9allocatorIS2_EEE5firstB7v160006Ev, symObjAddr: 0x3770, symBinAddr: 0x1000340E0, symSize: 0x1B }
  - { offsetInCU: 0x26, offset: 0x4F728, size: 0x8, addend: 0x0, symName: _main, symObjAddr: 0x0, symBinAddr: 0x100034100, symSize: 0x28 }
  - { offsetInCU: 0x33, offset: 0x4F735, size: 0x8, addend: 0x0, symName: _main, symObjAddr: 0x0, symBinAddr: 0x100034100, symSize: 0x28 }
  - { offsetInCU: 0x46A0, offset: 0x53E29, size: 0x8, addend: 0x0, symName: __Z10main_testsiPPKc, symObjAddr: 0x0, symBinAddr: 0x100034130, symSize: 0x3E0 }
  - { offsetInCU: 0x47A2, offset: 0x53F2B, size: 0x8, addend: 0x0, symName: __ZL6is_argPKcS0_, symObjAddr: 0x3E0, symBinAddr: 0x100034510, symSize: 0xF0 }
  - { offsetInCU: 0x48ED, offset: 0x54076, size: 0x8, addend: 0x0, symName: __ZN10GTestStatsC1Ev, symObjAddr: 0x4D0, symBinAddr: 0x100034600, symSize: 0x20 }
  - { offsetInCU: 0x4916, offset: 0x5409F, size: 0x8, addend: 0x0, symName: __ZNK10GTestStats7percentEv, symObjAddr: 0x4F0, symBinAddr: 0x100034620, symSize: 0x50 }
  - { offsetInCU: 0x49E5, offset: 0x5416E, size: 0x8, addend: 0x0, symName: __ZNSt3__112basic_stringIcNS_11char_traitsIcEENS_9allocatorIcEEEpLB7v160006EPKc, symObjAddr: 0x570, symBinAddr: 0x100034670, symSize: 0x30 }
  - { offsetInCU: 0x4A18, offset: 0x541A1, size: 0x8, addend: 0x0, symName: __ZN10GTestStatsC2Ev, symObjAddr: 0x8A0, symBinAddr: 0x1000346A0, symSize: 0x1B }
  - { offsetInCU: 0x52, offset: 0x5423C, size: 0x8, addend: 0x0, symName: _gTestRecs, symObjAddr: 0x9820, symBinAddr: 0x10003C890, symSize: 0x0 }
  - { offsetInCU: 0x24B, offset: 0x54435, size: 0x8, addend: 0x0, symName: _gTestSuite_Verbose, symObjAddr: 0x45D62, symBinAddr: 0x100040410, symSize: 0x0 }
  - { offsetInCU: 0x261, offset: 0x5444B, size: 0x8, addend: 0x0, symName: _gTestSuite_CrashOnFailure, symObjAddr: 0x45D63, symBinAddr: 0x100040411, symSize: 0x0 }
  - { offsetInCU: 0x269E, offset: 0x56888, size: 0x8, addend: 0x0, symName: __ZNSt3__1eqB7v160006IN5GPath4VerbES2_EENS_9enable_ifIX16is_convertible_vIDTeqclsr3stdE7declvalIRKT_EEclsr3stdE7declvalIRKT0_EEEbEEbE4typeERKNS_8optionalIS4_EES9_, symObjAddr: 0x41D0, symBinAddr: 0x1000383F0, symSize: 0x60 }
  - { offsetInCU: 0x26ED, offset: 0x568D7, size: 0x8, addend: 0x0, symName: __ZNSt3__1neB7v160006IN5GPath4VerbES2_EENS_9enable_ifIX16is_convertible_vIDTneclsr3stdE7declvalIRKT_EEclsr3stdE7declvalIRKT0_EEEbEEbE4typeERKNS_8optionalIS4_EES9_, symObjAddr: 0x8D70, symBinAddr: 0x1000386C0, symSize: 0x60 }
  - { offsetInCU: 0x4667, offset: 0x58851, size: 0x8, addend: 0x0, symName: __ZL10test_clearP10GTestStats, symObjAddr: 0x0, symBinAddr: 0x1000346C0, symSize: 0x430 }
  - { offsetInCU: 0x4729, offset: 0x58913, size: 0x8, addend: 0x0, symName: __ZL16test_rect_nodrawP10GTestStats, symObjAddr: 0x430, symBinAddr: 0x100034AF0, symSize: 0x1E0 }
  - { offsetInCU: 0x47DC, offset: 0x589C6, size: 0x8, addend: 0x0, symName: __ZL16test_poly_nodrawP10GTestStats, symObjAddr: 0x610, symBinAddr: 0x100034CD0, symSize: 0x220 }
  - { offsetInCU: 0x48B1, offset: 0x58A9B, size: 0x8, addend: 0x0, symName: __ZL11test_matrixP10GTestStats, symObjAddr: 0x830, symBinAddr: 0x100034EF0, symSize: 0x520 }
  - { offsetInCU: 0x4914, offset: 0x58AFE, size: 0x8, addend: 0x0, symName: __ZL15test_matrix_invP10GTestStats, symObjAddr: 0xD50, symBinAddr: 0x100035410, symSize: 0x2C0 }
  - { offsetInCU: 0x4967, offset: 0x58B51, size: 0x8, addend: 0x0, symName: __ZL15test_matrix_mapP10GTestStats, symObjAddr: 0x1010, symBinAddr: 0x1000356D0, symSize: 0x2C0 }
  - { offsetInCU: 0x4A06, offset: 0x58BF0, size: 0x8, addend: 0x0, symName: __ZL17test_clamp_shaderP10GTestStats, symObjAddr: 0x12D0, symBinAddr: 0x100035990, symSize: 0x2F0 }
  - { offsetInCU: 0x4AE0, offset: 0x58CCA, size: 0x8, addend: 0x0, symName: __ZL9test_pathP10GTestStats, symObjAddr: 0x15C0, symBinAddr: 0x100035C80, symSize: 0xAF0 }
  - { offsetInCU: 0x4B9C, offset: 0x58D86, size: 0x8, addend: 0x0, symName: __ZL14test_path_rectP10GTestStats, symObjAddr: 0x20B0, symBinAddr: 0x100036770, symSize: 0x4F0 }
  - { offsetInCU: 0x4C00, offset: 0x58DEA, size: 0x8, addend: 0x0, symName: __ZL14test_path_polyP10GTestStats, symObjAddr: 0x25A0, symBinAddr: 0x100036C60, symSize: 0x1E0 }
  - { offsetInCU: 0x4C45, offset: 0x58E2F, size: 0x8, addend: 0x0, symName: __ZL19test_path_transformP10GTestStats, symObjAddr: 0x2780, symBinAddr: 0x100036E40, symSize: 0x2E0 }
  - { offsetInCU: 0x4C99, offset: 0x58E83, size: 0x8, addend: 0x0, symName: __ZL16test_path_nodrawP10GTestStats, symObjAddr: 0x2A60, symBinAddr: 0x100037120, symSize: 0x390 }
  - { offsetInCU: 0x4DCE, offset: 0x58FB8, size: 0x8, addend: 0x0, symName: __ZL15GPixel_PackARGBjjjj, symObjAddr: 0x2DF0, symBinAddr: 0x1000374B0, symSize: 0x130 }
  - { offsetInCU: 0x4E24, offset: 0x5900E, size: 0x8, addend: 0x0, symName: __ZN7GBitmapC1Ev, symObjAddr: 0x2F20, symBinAddr: 0x1000375E0, symSize: 0x20 }
  - { offsetInCU: 0x4E4D, offset: 0x59037, size: 0x8, addend: 0x0, symName: __ZL17force_fill_pixelsR7GBitmapj, symObjAddr: 0x2F40, symBinAddr: 0x100037600, symSize: 0x30 }
  - { offsetInCU: 0x4EDC, offset: 0x590C6, size: 0x8, addend: 0x0, symName: __ZNKSt3__110unique_ptrI7GCanvasNS_14default_deleteIS1_EEEptB7v160006Ev, symObjAddr: 0x2F70, symBinAddr: 0x100037630, symSize: 0x20 }
  - { offsetInCU: 0x4F00, offset: 0x590EA, size: 0x8, addend: 0x0, symName: __ZN10GTestStats10expectTrueEbPKci, symObjAddr: 0x2F90, symBinAddr: 0x100037650, symSize: 0x70 }
  - { offsetInCU: 0x4F4E, offset: 0x59138, size: 0x8, addend: 0x0, symName: __ZL19expect_pixels_valueRK7GBitmapj, symObjAddr: 0x3000, symBinAddr: 0x1000376C0, symSize: 0x40 }
  - { offsetInCU: 0x4FD3, offset: 0x591BD, size: 0x8, addend: 0x0, symName: __ZNSt3__110unique_ptrI7GCanvasNS_14default_deleteIS1_EEED1B7v160006Ev, symObjAddr: 0x3040, symBinAddr: 0x100037700, symSize: 0x20 }
  - { offsetInCU: 0x4FFC, offset: 0x591E6, size: 0x8, addend: 0x0, symName: __ZN7GBitmapC2Ev, symObjAddr: 0x3060, symBinAddr: 0x100037720, symSize: 0x20 }
  - { offsetInCU: 0x5025, offset: 0x5920F, size: 0x8, addend: 0x0, symName: __ZN7GBitmap5resetEv, symObjAddr: 0x3080, symBinAddr: 0x100037740, symSize: 0x30 }
  - { offsetInCU: 0x5049, offset: 0x59233, size: 0x8, addend: 0x0, symName: '__Z12visit_pixelsIZL17force_fill_pixelsR7GBitmapjE3$_0EvRKS0_OT_', symObjAddr: 0x30B0, symBinAddr: 0x100037770, symSize: 0xC0 }
  - { offsetInCU: 0x50CA, offset: 0x592B4, size: 0x8, addend: 0x0, symName: '__ZZL17force_fill_pixelsR7GBitmapjENK3$_0clEiiPj', symObjAddr: 0x31A0, symBinAddr: 0x100037830, symSize: 0x20 }
  - { offsetInCU: 0x511D, offset: 0x59307, size: 0x8, addend: 0x0, symName: __ZNKSt3__117__compressed_pairIP7GCanvasNS_14default_deleteIS1_EEE5firstB7v160006Ev, symObjAddr: 0x3330, symBinAddr: 0x100037850, symSize: 0x20 }
  - { offsetInCU: 0x5141, offset: 0x5932B, size: 0x8, addend: 0x0, symName: __ZNKSt3__122__compressed_pair_elemIP7GCanvasLi0ELb0EE5__getB7v160006Ev, symObjAddr: 0x3350, symBinAddr: 0x100037870, symSize: 0x10 }
  - { offsetInCU: 0x5165, offset: 0x5934F, size: 0x8, addend: 0x0, symName: __ZN10GTestStats7didTestEbPKci, symObjAddr: 0x3360, symBinAddr: 0x100037880, symSize: 0xC0 }
  - { offsetInCU: 0x51B3, offset: 0x5939D, size: 0x8, addend: 0x0, symName: '__Z12visit_pixelsIZL19expect_pixels_valueRK7GBitmapjE3$_1EvS2_OT_', symObjAddr: 0x3420, symBinAddr: 0x100037940, symSize: 0xC0 }
  - { offsetInCU: 0x523E, offset: 0x59428, size: 0x8, addend: 0x0, symName: '__ZZL19expect_pixels_valueRK7GBitmapjENK3$_1clEiiPj', symObjAddr: 0x34E0, symBinAddr: 0x100037A00, symSize: 0x60 }
  - { offsetInCU: 0x5291, offset: 0x5947B, size: 0x8, addend: 0x0, symName: __ZNSt3__110unique_ptrI7GCanvasNS_14default_deleteIS1_EEED2B7v160006Ev, symObjAddr: 0x3540, symBinAddr: 0x100037A60, symSize: 0x20 }
  - { offsetInCU: 0x52BA, offset: 0x594A4, size: 0x8, addend: 0x0, symName: __ZNSt3__110unique_ptrI7GCanvasNS_14default_deleteIS1_EEE5resetB7v160006EPS1_, symObjAddr: 0x3560, symBinAddr: 0x100037A80, symSize: 0x70 }
  - { offsetInCU: 0x52FC, offset: 0x594E6, size: 0x8, addend: 0x0, symName: __ZNSt3__117__compressed_pairIP7GCanvasNS_14default_deleteIS1_EEE5firstB7v160006Ev, symObjAddr: 0x35D0, symBinAddr: 0x100037AF0, symSize: 0x20 }
  - { offsetInCU: 0x5320, offset: 0x5950A, size: 0x8, addend: 0x0, symName: __ZNSt3__117__compressed_pairIP7GCanvasNS_14default_deleteIS1_EEE6secondB7v160006Ev, symObjAddr: 0x35F0, symBinAddr: 0x100037B10, symSize: 0x20 }
  - { offsetInCU: 0x5344, offset: 0x5952E, size: 0x8, addend: 0x0, symName: __ZNKSt3__114default_deleteI7GCanvasEclB7v160006EPS1_, symObjAddr: 0x3610, symBinAddr: 0x100037B30, symSize: 0x40 }
  - { offsetInCU: 0x5376, offset: 0x59560, size: 0x8, addend: 0x0, symName: __ZNSt3__122__compressed_pair_elemIP7GCanvasLi0ELb0EE5__getB7v160006Ev, symObjAddr: 0x3650, symBinAddr: 0x100037B70, symSize: 0x10 }
  - { offsetInCU: 0x539A, offset: 0x59584, size: 0x8, addend: 0x0, symName: __ZNSt3__122__compressed_pair_elemINS_14default_deleteI7GCanvasEELi1ELb1EE5__getB7v160006Ev, symObjAddr: 0x3660, symBinAddr: 0x100037B80, symSize: 0x10 }
  - { offsetInCU: 0x53BE, offset: 0x595A8, size: 0x8, addend: 0x0, symName: __ZN7GCanvas8fillRectERK5GRectRK6GColor, symObjAddr: 0x3670, symBinAddr: 0x100037B90, symSize: 0x50 }
  - { offsetInCU: 0x53FE, offset: 0x595E8, size: 0x8, addend: 0x0, symName: __ZN6GPaintC1ERK6GColor, symObjAddr: 0x36C0, symBinAddr: 0x100037BE0, symSize: 0x30 }
  - { offsetInCU: 0x5435, offset: 0x5961F, size: 0x8, addend: 0x0, symName: __ZN6GPaintC2ERK6GColor, symObjAddr: 0x36F0, symBinAddr: 0x100037C10, symSize: 0x40 }
  - { offsetInCU: 0x546C, offset: 0x59656, size: 0x8, addend: 0x0, symName: __ZL5is_eqRK7GMatrixffffff, symObjAddr: 0x3730, symBinAddr: 0x100037C50, symSize: 0x140 }
  - { offsetInCU: 0x54EB, offset: 0x596D5, size: 0x8, addend: 0x0, symName: __Z4sqrtB7v160006f, symObjAddr: 0x3870, symBinAddr: 0x100037D90, symSize: 0x20 }
  - { offsetInCU: 0x551A, offset: 0x59704, size: 0x8, addend: 0x0, symName: __ZL5ie_eqff, symObjAddr: 0x38C0, symBinAddr: 0x100037DB0, symSize: 0x40 }
  - { offsetInCU: 0x5553, offset: 0x5973D, size: 0x8, addend: 0x0, symName: __Z4fabsB7v160006f, symObjAddr: 0x3980, symBinAddr: 0x100037DF0, symSize: 0x20 }
  - { offsetInCU: 0x5582, offset: 0x5976C, size: 0x8, addend: 0x0, symName: __ZN7GMatrixeqERKS_, symObjAddr: 0x39C0, symBinAddr: 0x100037E10, symSize: 0x80 }
  - { offsetInCU: 0x55D0, offset: 0x597BA, size: 0x8, addend: 0x0, symName: __ZNK6GPointeqES_, symObjAddr: 0x3A70, symBinAddr: 0x100037E90, symSize: 0x50 }
  - { offsetInCU: 0x5602, offset: 0x597EC, size: 0x8, addend: 0x0, symName: __ZN7GBitmapC1EiimPjb, symObjAddr: 0x3AC0, symBinAddr: 0x100037EE0, symSize: 0x50 }
  - { offsetInCU: 0x5694, offset: 0x5987E, size: 0x8, addend: 0x0, symName: __ZNKSt3__110unique_ptrI7GShaderNS_14default_deleteIS1_EEEcvbB7v160006Ev, symObjAddr: 0x3B10, symBinAddr: 0x100037F30, symSize: 0x30 }
  - { offsetInCU: 0x56B8, offset: 0x598A2, size: 0x8, addend: 0x0, symName: __ZNKSt3__110unique_ptrI7GShaderNS_14default_deleteIS1_EEEptB7v160006Ev, symObjAddr: 0x3B40, symBinAddr: 0x100037F60, symSize: 0x20 }
  - { offsetInCU: 0x56DC, offset: 0x598C6, size: 0x8, addend: 0x0, symName: __ZNSt3__110unique_ptrI7GShaderNS_14default_deleteIS1_EEED1B7v160006Ev, symObjAddr: 0x3B60, symBinAddr: 0x100037F80, symSize: 0x20 }
  - { offsetInCU: 0x5705, offset: 0x598EF, size: 0x8, addend: 0x0, symName: __ZN7GBitmapC2EiimPjb, symObjAddr: 0x3B80, symBinAddr: 0x100037FA0, symSize: 0x60 }
  - { offsetInCU: 0x5774, offset: 0x5995E, size: 0x8, addend: 0x0, symName: __ZNKSt3__117__compressed_pairIP7GShaderNS_14default_deleteIS1_EEE5firstB7v160006Ev, symObjAddr: 0x3D10, symBinAddr: 0x100038000, symSize: 0x20 }
  - { offsetInCU: 0x5798, offset: 0x59982, size: 0x8, addend: 0x0, symName: __ZNKSt3__122__compressed_pair_elemIP7GShaderLi0ELb0EE5__getB7v160006Ev, symObjAddr: 0x3D30, symBinAddr: 0x100038020, symSize: 0x10 }
  - { offsetInCU: 0x57BC, offset: 0x599A6, size: 0x8, addend: 0x0, symName: __ZNSt3__110unique_ptrI7GShaderNS_14default_deleteIS1_EEED2B7v160006Ev, symObjAddr: 0x3D40, symBinAddr: 0x100038030, symSize: 0x20 }
  - { offsetInCU: 0x57E5, offset: 0x599CF, size: 0x8, addend: 0x0, symName: __ZNSt3__110unique_ptrI7GShaderNS_14default_deleteIS1_EEE5resetB7v160006EPS1_, symObjAddr: 0x3D60, symBinAddr: 0x100038050, symSize: 0x70 }
  - { offsetInCU: 0x5827, offset: 0x59A11, size: 0x8, addend: 0x0, symName: __ZNSt3__117__compressed_pairIP7GShaderNS_14default_deleteIS1_EEE5firstB7v160006Ev, symObjAddr: 0x3DD0, symBinAddr: 0x1000380C0, symSize: 0x20 }
  - { offsetInCU: 0x584B, offset: 0x59A35, size: 0x8, addend: 0x0, symName: __ZNSt3__117__compressed_pairIP7GShaderNS_14default_deleteIS1_EEE6secondB7v160006Ev, symObjAddr: 0x3DF0, symBinAddr: 0x1000380E0, symSize: 0x20 }
  - { offsetInCU: 0x586F, offset: 0x59A59, size: 0x8, addend: 0x0, symName: __ZNKSt3__114default_deleteI7GShaderEclB7v160006EPS1_, symObjAddr: 0x3E10, symBinAddr: 0x100038100, symSize: 0x40 }
  - { offsetInCU: 0x58A1, offset: 0x59A8B, size: 0x8, addend: 0x0, symName: __ZNSt3__122__compressed_pair_elemIP7GShaderLi0ELb0EE5__getB7v160006Ev, symObjAddr: 0x3E50, symBinAddr: 0x100038140, symSize: 0x10 }
  - { offsetInCU: 0x58C5, offset: 0x59AAF, size: 0x8, addend: 0x0, symName: __ZNSt3__122__compressed_pair_elemINS_14default_deleteI7GShaderEELi1ELb1EE5__getB7v160006Ev, symObjAddr: 0x3E60, symBinAddr: 0x100038150, symSize: 0x10 }
  - { offsetInCU: 0x58E9, offset: 0x59AD3, size: 0x8, addend: 0x0, symName: __ZN10GTestStats8expectEQI5GRectEEvT_S2_PKci, symObjAddr: 0x3E70, symBinAddr: 0x100038160, symSize: 0x80 }
  - { offsetInCU: 0x594E, offset: 0x59B38, size: 0x8, addend: 0x0, symName: __ZN5GRect2WHEff, symObjAddr: 0x3EF0, symBinAddr: 0x1000381E0, symSize: 0x40 }
  - { offsetInCU: 0x597F, offset: 0x59B69, size: 0x8, addend: 0x0, symName: __ZN10GTestStats11expectFalseEbPKci, symObjAddr: 0x3F30, symBinAddr: 0x100038220, symSize: 0x40 }
  - { offsetInCU: 0x59CD, offset: 0x59BB7, size: 0x8, addend: 0x0, symName: __ZN5GRect4XYWHEffff, symObjAddr: 0x3FD0, symBinAddr: 0x100038260, symSize: 0x60 }
  - { offsetInCU: 0x5A1A, offset: 0x59C04, size: 0x8, addend: 0x0, symName: __ZN5GRect4LTRBEffff, symObjAddr: 0x4070, symBinAddr: 0x1000382C0, symSize: 0x50 }
  - { offsetInCU: 0x5A67, offset: 0x59C51, size: 0x8, addend: 0x0, symName: __ZN10GTestStats8expectEQIN5GPath4VerbEEEvT_S3_PKci, symObjAddr: 0x40C0, symBinAddr: 0x100038310, symSize: 0x40 }
  - { offsetInCU: 0x5ACC, offset: 0x59CB6, size: 0x8, addend: 0x0, symName: __ZNOSt3__18optionalIN5GPath4VerbEE5valueB7v160006Ev, symObjAddr: 0x4100, symBinAddr: 0x100038350, symSize: 0x40 }
  - { offsetInCU: 0x5AF0, offset: 0x59CDA, size: 0x8, addend: 0x0, symName: __ZN10GTestStats8expectEQI6GPointEEvT_S2_PKci, symObjAddr: 0x4140, symBinAddr: 0x100038390, symSize: 0x60 }
  - { offsetInCU: 0x5B55, offset: 0x59D3F, size: 0x8, addend: 0x0, symName: __ZNK5GRectcvbEv, symObjAddr: 0x4230, symBinAddr: 0x100038450, symSize: 0x30 }
  - { offsetInCU: 0x5B79, offset: 0x59D63, size: 0x8, addend: 0x0, symName: __ZNK5GRect7isEmptyEv, symObjAddr: 0x4260, symBinAddr: 0x100038480, symSize: 0x40 }
  - { offsetInCU: 0x5BD4, offset: 0x59DBE, size: 0x8, addend: 0x0, symName: __ZNKRSt3__18optionalIN5GPath4VerbEEdeB7v160006Ev, symObjAddr: 0x8B70, symBinAddr: 0x1000384C0, symSize: 0x20 }
  - { offsetInCU: 0x5BF8, offset: 0x59DE2, size: 0x8, addend: 0x0, symName: __ZNKRSt3__123__optional_storage_baseIN5GPath4VerbELb0EE5__getB7v160006Ev, symObjAddr: 0x8B90, symBinAddr: 0x1000384E0, symSize: 0x10 }
  - { offsetInCU: 0x5C1C, offset: 0x59E06, size: 0x8, addend: 0x0, symName: __ZL11expect_iterRK5GPathPK6GPointi, symObjAddr: 0x8BA0, symBinAddr: 0x1000384F0, symSize: 0x1D0 }
  - { offsetInCU: 0x5C9E, offset: 0x59E88, size: 0x8, addend: 0x0, symName: __ZNK6GPointneES_, symObjAddr: 0x8DD0, symBinAddr: 0x100038720, symSize: 0x40 }
  - { offsetInCU: 0x5CD0, offset: 0x59EBA, size: 0x8, addend: 0x0, symName: __ZNK5GRect6offsetEff, symObjAddr: 0x8E10, symBinAddr: 0x100038760, symSize: 0x70 }
  - { offsetInCU: 0x5D1A, offset: 0x59F04, size: 0x8, addend: 0x0, symName: '__ZZL16test_path_nodrawP10GTestStatsENK3$_2clEv', symObjAddr: 0x8E80, symBinAddr: 0x1000387D0, symSize: 0x90 }
  - { offsetInCU: 0x5D5C, offset: 0x59F46, size: 0x8, addend: 0x0, symName: '__ZZL16test_path_nodrawP10GTestStatsENK3$_3clEv', symObjAddr: 0x8F10, symBinAddr: 0x100038860, symSize: 0xA0 }
  - { offsetInCU: 0x5D9E, offset: 0x59F88, size: 0x8, addend: 0x0, symName: '__ZZL16test_path_nodrawP10GTestStatsENK3$_4clEv', symObjAddr: 0x8FB0, symBinAddr: 0x100038900, symSize: 0xC0 }
  - { offsetInCU: 0x5DD6, offset: 0x59FC0, size: 0x8, addend: 0x0, symName: __ZN6GPaintC1Ev, symObjAddr: 0x9070, symBinAddr: 0x1000389C0, symSize: 0x20 }
  - { offsetInCU: 0x5DFF, offset: 0x59FE9, size: 0x8, addend: 0x0, symName: __ZL9all_zerosPKvm, symObjAddr: 0x9090, symBinAddr: 0x1000389E0, symSize: 0x70 }
  - { offsetInCU: 0x5E63, offset: 0x5A04D, size: 0x8, addend: 0x0, symName: __ZN6GPaintC2Ev, symObjAddr: 0x9100, symBinAddr: 0x100038A50, symSize: 0x41 }
...
